Archive member included because of file (symbol)

/usr/local/ps3dev/psl1ght/ppu/lib/libgcm_sys.a(sprx.o)
                              rsxutil.o (gcmSetFlip)
/usr/local/ps3dev/psl1ght/ppu/lib/librsx.a(init.o)
                              rsxutil.o (rsxInit)
/usr/local/ps3dev/psl1ght/ppu/lib/librsx.a(buffer.o)
                              rsxutil.o (rsxFlushBuffer)
/usr/local/ps3dev/psl1ght/ppu/lib/librsx.a(commands.o)
                              /usr/local/ps3dev/psl1ght/ppu/lib/librsx.a(buffer.o) (rsxSetJumpCommand)
/usr/local/ps3dev/psl1ght/ppu/lib/librsx.a(mm.o)
                              /usr/local/ps3dev/psl1ght/ppu/lib/librsx.a(init.o) (rsxHeapInit)
/usr/local/ps3dev/psl1ght/ppu/lib/librsx.a(vertex_program.o)
                              /usr/local/ps3dev/psl1ght/ppu/lib/librsx.a(commands.o) (rsxVertexProgramGetConsts)
/usr/local/ps3dev/psl1ght/ppu/lib/librsx.a(fragment_program.o)
                              /usr/local/ps3dev/psl1ght/ppu/lib/librsx.a(commands.o) (rsxFragmentProgramGetConsts)
/usr/local/ps3dev/psl1ght/ppu/lib/libsysutil.a(sprx.o)
                              rsxutil.o (videoConfigure)
/usr/local/ps3dev/psl1ght/ppu/lib/libio.a(sprx.o)
                              main.o (ioPadEnd)
/usr/local/ps3dev/psl1ght/ppu/lib/librt.a(sbrk.o)
                              /usr/local/ps3dev/ppu/lib/gcc/powerpc64-ps3-elf/7.2.0/../../../../powerpc64-ps3-elf/lib/lv2-crt0.o (__librt_sbrk_r)
/usr/local/ps3dev/psl1ght/ppu/lib/librt.a(exit.o)
                              /usr/local/ps3dev/ppu/lib/gcc/powerpc64-ps3-elf/7.2.0/../../../../powerpc64-ps3-elf/lib/lv2-crt0.o (__librt_exit)
/usr/local/ps3dev/psl1ght/ppu/lib/librt.a(close.o)
                              /usr/local/ps3dev/ppu/lib/gcc/powerpc64-ps3-elf/7.2.0/../../../../powerpc64-ps3-elf/lib/lv2-crt0.o (__librt_close_r)
/usr/local/ps3dev/psl1ght/ppu/lib/librt.a(lseek.o)
                              /usr/local/ps3dev/ppu/lib/gcc/powerpc64-ps3-elf/7.2.0/../../../../powerpc64-ps3-elf/lib/lv2-crt0.o (__librt_lseek_r)
/usr/local/ps3dev/psl1ght/ppu/lib/librt.a(read.o)
                              /usr/local/ps3dev/ppu/lib/gcc/powerpc64-ps3-elf/7.2.0/../../../../powerpc64-ps3-elf/lib/lv2-crt0.o (__librt_read_r)
/usr/local/ps3dev/psl1ght/ppu/lib/librt.a(open.o)
                              /usr/local/ps3dev/ppu/lib/gcc/powerpc64-ps3-elf/7.2.0/../../../../powerpc64-ps3-elf/lib/lv2-crt0.o (__librt_open_r)
/usr/local/ps3dev/psl1ght/ppu/lib/librt.a(sleep.o)
                              /usr/local/ps3dev/ppu/lib/gcc/powerpc64-ps3-elf/7.2.0/../../../../powerpc64-ps3-elf/lib/lv2-crt0.o (__librt_usleep_r)
/usr/local/ps3dev/psl1ght/ppu/lib/librt.a(write.o)
                              /usr/local/ps3dev/ppu/lib/gcc/powerpc64-ps3-elf/7.2.0/../../../../powerpc64-ps3-elf/lib/lv2-crt0.o (__librt_write_r)
/usr/local/ps3dev/psl1ght/ppu/lib/librt.a(fstat.o)
                              /usr/local/ps3dev/ppu/lib/gcc/powerpc64-ps3-elf/7.2.0/../../../../powerpc64-ps3-elf/lib/lv2-crt0.o (__librt_fstat_r)
/usr/local/ps3dev/psl1ght/ppu/lib/librt.a(socket.o)
                              /usr/local/ps3dev/psl1ght/ppu/lib/librt.a(write.o) (send)
/usr/local/ps3dev/psl1ght/ppu/lib/librt.a(lock.o)
                              /usr/local/ps3dev/ppu/lib/gcc/powerpc64-ps3-elf/7.2.0/../../../../powerpc64-ps3-elf/lib/lv2-crt0.o (__librt_sys_lwmutex_create_r)
/usr/local/ps3dev/psl1ght/ppu/lib/librt.a(dirent.o)
                              /usr/local/ps3dev/ppu/lib/gcc/powerpc64-ps3-elf/7.2.0/../../../../powerpc64-ps3-elf/lib/lv2-crt0.o (__librt_opendir_r)
/usr/local/ps3dev/psl1ght/ppu/lib/librt.a(mkdir.o)
                              /usr/local/ps3dev/ppu/lib/gcc/powerpc64-ps3-elf/7.2.0/../../../../powerpc64-ps3-elf/lib/lv2-crt0.o (__librt_mkdir_r)
/usr/local/ps3dev/psl1ght/ppu/lib/librt.a(times.o)
                              /usr/local/ps3dev/ppu/lib/gcc/powerpc64-ps3-elf/7.2.0/../../../../powerpc64-ps3-elf/lib/lv2-crt0.o (__librt_times_r)
/usr/local/ps3dev/psl1ght/ppu/lib/librt.a(umask.o)
                              /usr/local/ps3dev/ppu/lib/gcc/powerpc64-ps3-elf/7.2.0/../../../../powerpc64-ps3-elf/lib/lv2-crt0.o (__librt_umask_r)
/usr/local/ps3dev/psl1ght/ppu/lib/librt.a(lv2errno.o)
                              /usr/local/ps3dev/psl1ght/ppu/lib/librt.a(socket.o) (lv2errno)
/usr/local/ps3dev/psl1ght/ppu/lib/librt.a(heap.o)
                              /usr/local/ps3dev/psl1ght/ppu/lib/librsx.a(mm.o) (heapInit)
/usr/local/ps3dev/psl1ght/ppu/lib/librt.a(chmod.o)
                              /usr/local/ps3dev/ppu/lib/gcc/powerpc64-ps3-elf/7.2.0/../../../../powerpc64-ps3-elf/lib/lv2-crt0.o (__librt_chmod_r)
/usr/local/ps3dev/psl1ght/ppu/lib/librt.a(rmdir.o)
                              /usr/local/ps3dev/ppu/lib/gcc/powerpc64-ps3-elf/7.2.0/../../../../powerpc64-ps3-elf/lib/lv2-crt0.o (__librt_rmdir_r)
/usr/local/ps3dev/psl1ght/ppu/lib/librt.a(isatty.o)
                              /usr/local/ps3dev/ppu/lib/gcc/powerpc64-ps3-elf/7.2.0/../../../../powerpc64-ps3-elf/lib/lv2-crt0.o (__librt_isatty_r)
/usr/local/ps3dev/psl1ght/ppu/lib/librt.a(gettod.o)
                              /usr/local/ps3dev/ppu/lib/gcc/powerpc64-ps3-elf/7.2.0/../../../../powerpc64-ps3-elf/lib/lv2-crt0.o (__librt_gettod_r)
/usr/local/ps3dev/psl1ght/ppu/lib/librt.a(settod.o)
                              /usr/local/ps3dev/ppu/lib/gcc/powerpc64-ps3-elf/7.2.0/../../../../powerpc64-ps3-elf/lib/lv2-crt0.o (__librt_settod_r)
/usr/local/ps3dev/psl1ght/ppu/lib/liblv2.a(sprx.o)
                              /usr/local/ps3dev/psl1ght/ppu/lib/librt.a(sbrk.o) (sysSpinlockInitialize)
/usr/local/ps3dev/ppu/lib/gcc/powerpc64-ps3-elf/7.2.0/../../../../powerpc64-ps3-elf/lib/libsysbase.a(syscalls.o)
                              /usr/local/ps3dev/ppu/lib/gcc/powerpc64-ps3-elf/7.2.0/../../../../powerpc64-ps3-elf/lib/lv2-crt0.o (__syscalls)
/usr/local/ps3dev/ppu/lib/gcc/powerpc64-ps3-elf/7.2.0/../../../../powerpc64-ps3-elf/lib/libsysbase.a(sleep.o)
                              rsxutil.o (usleep)
/usr/local/ps3dev/ppu/lib/gcc/powerpc64-ps3-elf/7.2.0/../../../../powerpc64-ps3-elf/lib/libc.a(lib_a-calloc.o)
                              /usr/local/ps3dev/psl1ght/ppu/lib/librt.a(dirent.o) (calloc)
/usr/local/ps3dev/ppu/lib/gcc/powerpc64-ps3-elf/7.2.0/../../../../powerpc64-ps3-elf/lib/libc.a(lib_a-callocr.o)
                              /usr/local/ps3dev/ppu/lib/gcc/powerpc64-ps3-elf/7.2.0/../../../../powerpc64-ps3-elf/lib/libc.a(lib_a-calloc.o) (_calloc_r)
/usr/local/ps3dev/ppu/lib/gcc/powerpc64-ps3-elf/7.2.0/../../../../powerpc64-ps3-elf/lib/libc.a(lib_a-errno.o)
                              /usr/local/ps3dev/psl1ght/ppu/lib/librt.a(socket.o) (__errno)
/usr/local/ps3dev/ppu/lib/gcc/powerpc64-ps3-elf/7.2.0/../../../../powerpc64-ps3-elf/lib/libc.a(lib_a-exit.o)
                              /usr/local/ps3dev/ppu/lib/gcc/powerpc64-ps3-elf/7.2.0/../../../../powerpc64-ps3-elf/lib/lv2-crt0.o (exit)
/usr/local/ps3dev/ppu/lib/gcc/powerpc64-ps3-elf/7.2.0/../../../../powerpc64-ps3-elf/lib/libc.a(lib_a-getreent.o)
                              /usr/local/ps3dev/ppu/lib/gcc/powerpc64-ps3-elf/7.2.0/../../../../powerpc64-ps3-elf/lib/libsysbase.a(sleep.o) (__getreent)
/usr/local/ps3dev/ppu/lib/gcc/powerpc64-ps3-elf/7.2.0/../../../../powerpc64-ps3-elf/lib/libc.a(lib_a-impure.o)
                              /usr/local/ps3dev/ppu/lib/gcc/powerpc64-ps3-elf/7.2.0/../../../../powerpc64-ps3-elf/lib/libc.a(lib_a-exit.o) (_global_impure_ptr)
/usr/local/ps3dev/ppu/lib/gcc/powerpc64-ps3-elf/7.2.0/../../../../powerpc64-ps3-elf/lib/libc.a(lib_a-malign.o)
                              main.o (memalign)
/usr/local/ps3dev/ppu/lib/gcc/powerpc64-ps3-elf/7.2.0/../../../../powerpc64-ps3-elf/lib/libc.a(lib_a-malignr.o)
                              /usr/local/ps3dev/ppu/lib/gcc/powerpc64-ps3-elf/7.2.0/../../../../powerpc64-ps3-elf/lib/libc.a(lib_a-malign.o) (_memalign_r)
/usr/local/ps3dev/ppu/lib/gcc/powerpc64-ps3-elf/7.2.0/../../../../powerpc64-ps3-elf/lib/libc.a(lib_a-malloc.o)
                              main.o (free)
/usr/local/ps3dev/ppu/lib/gcc/powerpc64-ps3-elf/7.2.0/../../../../powerpc64-ps3-elf/lib/libc.a(lib_a-mallocr.o)
                              /usr/local/ps3dev/ppu/lib/gcc/powerpc64-ps3-elf/7.2.0/../../../../powerpc64-ps3-elf/lib/libc.a(lib_a-callocr.o) (_malloc_r)
/usr/local/ps3dev/ppu/lib/gcc/powerpc64-ps3-elf/7.2.0/../../../../powerpc64-ps3-elf/lib/libc.a(lib_a-memset.o)
                              /usr/local/ps3dev/psl1ght/ppu/lib/librt.a(fstat.o) (memset)
/usr/local/ps3dev/ppu/lib/gcc/powerpc64-ps3-elf/7.2.0/../../../../powerpc64-ps3-elf/lib/libc.a(lib_a-mlock.o)
                              /usr/local/ps3dev/ppu/lib/gcc/powerpc64-ps3-elf/7.2.0/../../../../powerpc64-ps3-elf/lib/libc.a(lib_a-malignr.o) (__malloc_lock)
/usr/local/ps3dev/ppu/lib/gcc/powerpc64-ps3-elf/7.2.0/../../../../powerpc64-ps3-elf/lib/libc.a(lib_a-sscanf.o)
                              /usr/local/ps3dev/psl1ght/ppu/lib/librt.a(socket.o) (sscanf)
/usr/local/ps3dev/ppu/lib/gcc/powerpc64-ps3-elf/7.2.0/../../../../powerpc64-ps3-elf/lib/libc.a(lib_a-stdio.o)
                              /usr/local/ps3dev/ppu/lib/gcc/powerpc64-ps3-elf/7.2.0/../../../../powerpc64-ps3-elf/lib/libc.a(lib_a-sscanf.o) (__seofread)
/usr/local/ps3dev/ppu/lib/gcc/powerpc64-ps3-elf/7.2.0/../../../../powerpc64-ps3-elf/lib/libc.a(lib_a-strcasecmp.o)
                              /usr/local/ps3dev/psl1ght/ppu/lib/librsx.a(vertex_program.o) (strcasecmp)
/usr/local/ps3dev/ppu/lib/gcc/powerpc64-ps3-elf/7.2.0/../../../../powerpc64-ps3-elf/lib/libc.a(lib_a-strlen.o)
                              /usr/local/ps3dev/ppu/lib/gcc/powerpc64-ps3-elf/7.2.0/../../../../powerpc64-ps3-elf/lib/libc.a(lib_a-sscanf.o) (strlen)
/usr/local/ps3dev/ppu/lib/gcc/powerpc64-ps3-elf/7.2.0/../../../../powerpc64-ps3-elf/lib/libc.a(lib_a-strncpy.o)
                              /usr/local/ps3dev/psl1ght/ppu/lib/librt.a(dirent.o) (strncpy)
/usr/local/ps3dev/ppu/lib/gcc/powerpc64-ps3-elf/7.2.0/../../../../powerpc64-ps3-elf/lib/libc.a(lib_a-svfscanf.o)
                              /usr/local/ps3dev/ppu/lib/gcc/powerpc64-ps3-elf/7.2.0/../../../../powerpc64-ps3-elf/lib/libc.a(lib_a-sscanf.o) (__ssvfscanf_r)
/usr/local/ps3dev/ppu/lib/gcc/powerpc64-ps3-elf/7.2.0/../../../../powerpc64-ps3-elf/lib/libc.a(lib_a-__call_atexit.o)
                              /usr/local/ps3dev/ppu/lib/gcc/powerpc64-ps3-elf/7.2.0/../../../../powerpc64-ps3-elf/lib/libc.a(lib_a-exit.o) (__call_exitprocs)
/usr/local/ps3dev/ppu/lib/gcc/powerpc64-ps3-elf/7.2.0/../../../../powerpc64-ps3-elf/lib/libc.a(lib_a-ctype_.o)
                              /usr/local/ps3dev/ppu/lib/gcc/powerpc64-ps3-elf/7.2.0/../../../../powerpc64-ps3-elf/lib/libc.a(lib_a-strcasecmp.o) (__ctype_ptr__)
/usr/local/ps3dev/ppu/lib/gcc/powerpc64-ps3-elf/7.2.0/../../../../powerpc64-ps3-elf/lib/libc.a(lib_a-freer.o)
                              /usr/local/ps3dev/ppu/lib/gcc/powerpc64-ps3-elf/7.2.0/../../../../powerpc64-ps3-elf/lib/libc.a(lib_a-malignr.o) (_free_r)
/usr/local/ps3dev/ppu/lib/gcc/powerpc64-ps3-elf/7.2.0/../../../../powerpc64-ps3-elf/lib/libc.a(lib_a-iswspace.o)
                              /usr/local/ps3dev/ppu/lib/gcc/powerpc64-ps3-elf/7.2.0/../../../../powerpc64-ps3-elf/lib/libc.a(lib_a-svfscanf.o) (iswspace)
/usr/local/ps3dev/ppu/lib/gcc/powerpc64-ps3-elf/7.2.0/../../../../powerpc64-ps3-elf/lib/libc.a(lib_a-locale.o)
                              /usr/local/ps3dev/ppu/lib/gcc/powerpc64-ps3-elf/7.2.0/../../../../powerpc64-ps3-elf/lib/libc.a(lib_a-svfscanf.o) (__locale_mb_cur_max)
/usr/local/ps3dev/ppu/lib/gcc/powerpc64-ps3-elf/7.2.0/../../../../powerpc64-ps3-elf/lib/libc.a(lib_a-lock_recursive.o)
                              /usr/local/ps3dev/ppu/lib/gcc/powerpc64-ps3-elf/7.2.0/../../../../powerpc64-ps3-elf/lib/libc.a(lib_a-mlock.o) (__libc_lock_acquire_recursive)
/usr/local/ps3dev/ppu/lib/gcc/powerpc64-ps3-elf/7.2.0/../../../../powerpc64-ps3-elf/lib/libc.a(lib_a-mbrtowc.o)
                              /usr/local/ps3dev/ppu/lib/gcc/powerpc64-ps3-elf/7.2.0/../../../../powerpc64-ps3-elf/lib/libc.a(lib_a-svfscanf.o) (_mbrtowc_r)
/usr/local/ps3dev/ppu/lib/gcc/powerpc64-ps3-elf/7.2.0/../../../../powerpc64-ps3-elf/lib/libc.a(lib_a-mbtowc_r.o)
                              /usr/local/ps3dev/ppu/lib/gcc/powerpc64-ps3-elf/7.2.0/../../../../powerpc64-ps3-elf/lib/libc.a(lib_a-mbrtowc.o) (__mbtowc)
/usr/local/ps3dev/ppu/lib/gcc/powerpc64-ps3-elf/7.2.0/../../../../powerpc64-ps3-elf/lib/libc.a(lib_a-s_fpclassify.o)
                              /usr/local/ps3dev/ppu/lib/gcc/powerpc64-ps3-elf/7.2.0/../../../../powerpc64-ps3-elf/lib/libc.a(lib_a-svfscanf.o) (__fpclassifyd)
/usr/local/ps3dev/ppu/lib/gcc/powerpc64-ps3-elf/7.2.0/../../../../powerpc64-ps3-elf/lib/libc.a(lib_a-sccl.o)
                              /usr/local/ps3dev/ppu/lib/gcc/powerpc64-ps3-elf/7.2.0/../../../../powerpc64-ps3-elf/lib/libc.a(lib_a-svfscanf.o) (__sccl)
/usr/local/ps3dev/ppu/lib/gcc/powerpc64-ps3-elf/7.2.0/../../../../powerpc64-ps3-elf/lib/libc.a(lib_a-sf_nan.o)
                              /usr/local/ps3dev/ppu/lib/gcc/powerpc64-ps3-elf/7.2.0/../../../../powerpc64-ps3-elf/lib/libc.a(lib_a-svfscanf.o) (nanf)
/usr/local/ps3dev/ppu/lib/gcc/powerpc64-ps3-elf/7.2.0/../../../../powerpc64-ps3-elf/lib/libc.a(lib_a-sprintf.o)
                              /usr/local/ps3dev/ppu/lib/gcc/powerpc64-ps3-elf/7.2.0/../../../../powerpc64-ps3-elf/lib/libc.a(lib_a-svfscanf.o) (sprintf)
/usr/local/ps3dev/ppu/lib/gcc/powerpc64-ps3-elf/7.2.0/../../../../powerpc64-ps3-elf/lib/libc.a(lib_a-strcmp.o)
                              /usr/local/ps3dev/ppu/lib/gcc/powerpc64-ps3-elf/7.2.0/../../../../powerpc64-ps3-elf/lib/libc.a(lib_a-locale.o) (strcmp)
/usr/local/ps3dev/ppu/lib/gcc/powerpc64-ps3-elf/7.2.0/../../../../powerpc64-ps3-elf/lib/libc.a(lib_a-strtod.o)
                              /usr/local/ps3dev/ppu/lib/gcc/powerpc64-ps3-elf/7.2.0/../../../../powerpc64-ps3-elf/lib/libc.a(lib_a-svfscanf.o) (_strtod_r)
/usr/local/ps3dev/ppu/lib/gcc/powerpc64-ps3-elf/7.2.0/../../../../powerpc64-ps3-elf/lib/libc.a(lib_a-strtol.o)
                              /usr/local/ps3dev/ppu/lib/gcc/powerpc64-ps3-elf/7.2.0/../../../../powerpc64-ps3-elf/lib/libc.a(lib_a-svfscanf.o) (_strtol_r)
/usr/local/ps3dev/ppu/lib/gcc/powerpc64-ps3-elf/7.2.0/../../../../powerpc64-ps3-elf/lib/libc.a(lib_a-strtoll_r.o)
                              /usr/local/ps3dev/ppu/lib/gcc/powerpc64-ps3-elf/7.2.0/../../../../powerpc64-ps3-elf/lib/libc.a(lib_a-svfscanf.o) (_strtoll_r)
/usr/local/ps3dev/ppu/lib/gcc/powerpc64-ps3-elf/7.2.0/../../../../powerpc64-ps3-elf/lib/libc.a(lib_a-strtoul.o)
                              /usr/local/ps3dev/ppu/lib/gcc/powerpc64-ps3-elf/7.2.0/../../../../powerpc64-ps3-elf/lib/libc.a(lib_a-svfscanf.o) (_strtoul_r)
/usr/local/ps3dev/ppu/lib/gcc/powerpc64-ps3-elf/7.2.0/../../../../powerpc64-ps3-elf/lib/libc.a(lib_a-strtoull_r.o)
                              /usr/local/ps3dev/ppu/lib/gcc/powerpc64-ps3-elf/7.2.0/../../../../powerpc64-ps3-elf/lib/libc.a(lib_a-svfscanf.o) (_strtoull_r)
/usr/local/ps3dev/ppu/lib/gcc/powerpc64-ps3-elf/7.2.0/../../../../powerpc64-ps3-elf/lib/libc.a(lib_a-svfiscanf.o)
                              /usr/local/ps3dev/ppu/lib/gcc/powerpc64-ps3-elf/7.2.0/../../../../powerpc64-ps3-elf/lib/libc.a(lib_a-svfscanf.o) (_sungetc_r)
/usr/local/ps3dev/ppu/lib/gcc/powerpc64-ps3-elf/7.2.0/../../../../powerpc64-ps3-elf/lib/libc.a(lib_a-svfprintf.o)
                              /usr/local/ps3dev/ppu/lib/gcc/powerpc64-ps3-elf/7.2.0/../../../../powerpc64-ps3-elf/lib/libc.a(lib_a-sprintf.o) (_svfprintf_r)
/usr/local/ps3dev/ppu/lib/gcc/powerpc64-ps3-elf/7.2.0/../../../../powerpc64-ps3-elf/lib/libc.a(lib_a-ungetc.o)
                              /usr/local/ps3dev/ppu/lib/gcc/powerpc64-ps3-elf/7.2.0/../../../../powerpc64-ps3-elf/lib/libc.a(lib_a-svfiscanf.o) (__submore)
/usr/local/ps3dev/ppu/lib/gcc/powerpc64-ps3-elf/7.2.0/../../../../powerpc64-ps3-elf/lib/libc.a(lib_a-__atexit.o)
                              /usr/local/ps3dev/ppu/lib/gcc/powerpc64-ps3-elf/7.2.0/../../../../powerpc64-ps3-elf/lib/libc.a(lib_a-__call_atexit.o) (__atexit_lock)
/usr/local/ps3dev/ppu/lib/gcc/powerpc64-ps3-elf/7.2.0/../../../../powerpc64-ps3-elf/lib/libc.a(lib_a-dtoa.o)
                              /usr/local/ps3dev/ppu/lib/gcc/powerpc64-ps3-elf/7.2.0/../../../../powerpc64-ps3-elf/lib/libc.a(lib_a-svfprintf.o) (_dtoa_r)
/usr/local/ps3dev/ppu/lib/gcc/powerpc64-ps3-elf/7.2.0/../../../../powerpc64-ps3-elf/lib/libc.a(lib_a-fflush.o)
                              /usr/local/ps3dev/ppu/lib/gcc/powerpc64-ps3-elf/7.2.0/../../../../powerpc64-ps3-elf/lib/libc.a(lib_a-ungetc.o) (_fflush_r)
/usr/local/ps3dev/ppu/lib/gcc/powerpc64-ps3-elf/7.2.0/../../../../powerpc64-ps3-elf/lib/libc.a(lib_a-findfp.o)
                              /usr/local/ps3dev/ppu/lib/gcc/powerpc64-ps3-elf/7.2.0/../../../../powerpc64-ps3-elf/lib/libc.a(lib_a-ungetc.o) (__sinit)
/usr/local/ps3dev/ppu/lib/gcc/powerpc64-ps3-elf/7.2.0/../../../../powerpc64-ps3-elf/lib/libc.a(lib_a-fwalk.o)
                              /usr/local/ps3dev/ppu/lib/gcc/powerpc64-ps3-elf/7.2.0/../../../../powerpc64-ps3-elf/lib/libc.a(lib_a-findfp.o) (_fwalk)
/usr/local/ps3dev/ppu/lib/gcc/powerpc64-ps3-elf/7.2.0/../../../../powerpc64-ps3-elf/lib/libc.a(lib_a-gdtoa-gethex.o)
                              /usr/local/ps3dev/ppu/lib/gcc/powerpc64-ps3-elf/7.2.0/../../../../powerpc64-ps3-elf/lib/libc.a(lib_a-strtod.o) (__gethex)
/usr/local/ps3dev/ppu/lib/gcc/powerpc64-ps3-elf/7.2.0/../../../../powerpc64-ps3-elf/lib/libc.a(lib_a-gdtoa-hexnan.o)
                              /usr/local/ps3dev/ppu/lib/gcc/powerpc64-ps3-elf/7.2.0/../../../../powerpc64-ps3-elf/lib/libc.a(lib_a-strtod.o) (__hexnan)
/usr/local/ps3dev/ppu/lib/gcc/powerpc64-ps3-elf/7.2.0/../../../../powerpc64-ps3-elf/lib/libc.a(lib_a-lock_internal.o)
                              /usr/local/ps3dev/ppu/lib/gcc/powerpc64-ps3-elf/7.2.0/../../../../powerpc64-ps3-elf/lib/libc.a(lib_a-lock_recursive.o) (__libc_auto_lock_allocate)
/usr/local/ps3dev/ppu/lib/gcc/powerpc64-ps3-elf/7.2.0/../../../../powerpc64-ps3-elf/lib/libc.a(lib_a-memchr.o)
                              /usr/local/ps3dev/ppu/lib/gcc/powerpc64-ps3-elf/7.2.0/../../../../powerpc64-ps3-elf/lib/libc.a(lib_a-svfprintf.o) (memchr)
/usr/local/ps3dev/ppu/lib/gcc/powerpc64-ps3-elf/7.2.0/../../../../powerpc64-ps3-elf/lib/libc.a(lib_a-memcpy.o)
                              /usr/local/ps3dev/ppu/lib/gcc/powerpc64-ps3-elf/7.2.0/../../../../powerpc64-ps3-elf/lib/libc.a(lib_a-strtod.o) (memcpy)
/usr/local/ps3dev/ppu/lib/gcc/powerpc64-ps3-elf/7.2.0/../../../../powerpc64-ps3-elf/lib/libc.a(lib_a-mprec.o)
                              /usr/local/ps3dev/ppu/lib/gcc/powerpc64-ps3-elf/7.2.0/../../../../powerpc64-ps3-elf/lib/libc.a(lib_a-strtod.o) (_Balloc)
/usr/local/ps3dev/ppu/lib/gcc/powerpc64-ps3-elf/7.2.0/../../../../powerpc64-ps3-elf/lib/libc.a(lib_a-reallocr.o)
                              /usr/local/ps3dev/ppu/lib/gcc/powerpc64-ps3-elf/7.2.0/../../../../powerpc64-ps3-elf/lib/libc.a(lib_a-ungetc.o) (_realloc_r)
/usr/local/ps3dev/ppu/lib/gcc/powerpc64-ps3-elf/7.2.0/../../../../powerpc64-ps3-elf/lib/libc.a(lib_a-strncmp.o)
                              /usr/local/ps3dev/ppu/lib/gcc/powerpc64-ps3-elf/7.2.0/../../../../powerpc64-ps3-elf/lib/libc.a(lib_a-strtod.o) (strncmp)
/usr/local/ps3dev/ppu/lib/gcc/powerpc64-ps3-elf/7.2.0/../../../../powerpc64-ps3-elf/lib/libc.a(lib_a-svfiprintf.o)
                              /usr/local/ps3dev/ppu/lib/gcc/powerpc64-ps3-elf/7.2.0/../../../../powerpc64-ps3-elf/lib/libc.a(lib_a-svfprintf.o) (__ssprint_r)
/usr/local/ps3dev/ppu/lib/gcc/powerpc64-ps3-elf/7.2.0/../../../../powerpc64-ps3-elf/lib/libc.a(lib_a-abort.o)
                              /usr/local/ps3dev/ppu/lib/gcc/powerpc64-ps3-elf/7.2.0/../../../../powerpc64-ps3-elf/lib/libc.a(lib_a-lock_internal.o) (abort)
/usr/local/ps3dev/ppu/lib/gcc/powerpc64-ps3-elf/7.2.0/../../../../powerpc64-ps3-elf/lib/libc.a(lib_a-fclose.o)
                              /usr/local/ps3dev/ppu/lib/gcc/powerpc64-ps3-elf/7.2.0/../../../../powerpc64-ps3-elf/lib/libc.a(lib_a-findfp.o) (fclose)
/usr/local/ps3dev/ppu/lib/gcc/powerpc64-ps3-elf/7.2.0/../../../../powerpc64-ps3-elf/lib/libc.a(lib_a-memmove.o)
                              /usr/local/ps3dev/ppu/lib/gcc/powerpc64-ps3-elf/7.2.0/../../../../powerpc64-ps3-elf/lib/libc.a(lib_a-reallocr.o) (memmove)
/usr/local/ps3dev/ppu/lib/gcc/powerpc64-ps3-elf/7.2.0/../../../../powerpc64-ps3-elf/lib/libc.a(lib_a-signal.o)
                              /usr/local/ps3dev/ppu/lib/gcc/powerpc64-ps3-elf/7.2.0/../../../../powerpc64-ps3-elf/lib/libc.a(lib_a-abort.o) (raise)
/usr/local/ps3dev/ppu/lib/gcc/powerpc64-ps3-elf/7.2.0/../../../../powerpc64-ps3-elf/lib/libsysbase.a(close.o)
                              /usr/local/ps3dev/ppu/lib/gcc/powerpc64-ps3-elf/7.2.0/../../../../powerpc64-ps3-elf/lib/libc.a(lib_a-stdio.o) (_close_r)
/usr/local/ps3dev/ppu/lib/gcc/powerpc64-ps3-elf/7.2.0/../../../../powerpc64-ps3-elf/lib/libsysbase.a(sbrk.o)
                              /usr/local/ps3dev/ppu/lib/gcc/powerpc64-ps3-elf/7.2.0/../../../../powerpc64-ps3-elf/lib/libc.a(lib_a-mallocr.o) (_sbrk_r)
/usr/local/ps3dev/ppu/lib/gcc/powerpc64-ps3-elf/7.2.0/../../../../powerpc64-ps3-elf/lib/libsysbase.a(_exit.o)
                              /usr/local/ps3dev/ppu/lib/gcc/powerpc64-ps3-elf/7.2.0/../../../../powerpc64-ps3-elf/lib/libc.a(lib_a-exit.o) (_exit)
/usr/local/ps3dev/ppu/lib/gcc/powerpc64-ps3-elf/7.2.0/../../../../powerpc64-ps3-elf/lib/libsysbase.a(lseek.o)
                              /usr/local/ps3dev/ppu/lib/gcc/powerpc64-ps3-elf/7.2.0/../../../../powerpc64-ps3-elf/lib/libc.a(lib_a-stdio.o) (_lseek_r)
/usr/local/ps3dev/ppu/lib/gcc/powerpc64-ps3-elf/7.2.0/../../../../powerpc64-ps3-elf/lib/libsysbase.a(read.o)
                              /usr/local/ps3dev/ppu/lib/gcc/powerpc64-ps3-elf/7.2.0/../../../../powerpc64-ps3-elf/lib/libc.a(lib_a-stdio.o) (_read_r)
/usr/local/ps3dev/ppu/lib/gcc/powerpc64-ps3-elf/7.2.0/../../../../powerpc64-ps3-elf/lib/libsysbase.a(write.o)
                              /usr/local/ps3dev/ppu/lib/gcc/powerpc64-ps3-elf/7.2.0/../../../../powerpc64-ps3-elf/lib/libc.a(lib_a-stdio.o) (_write_r)
/usr/local/ps3dev/ppu/lib/gcc/powerpc64-ps3-elf/7.2.0/../../../../powerpc64-ps3-elf/lib/libsysbase.a(lock.o)
                              /usr/local/ps3dev/ppu/lib/gcc/powerpc64-ps3-elf/7.2.0/../../../../powerpc64-ps3-elf/lib/libc.a(lib_a-lock_recursive.o) (sys_lwmutex_create)
/usr/local/ps3dev/ppu/lib/gcc/powerpc64-ps3-elf/7.2.0/../../../../powerpc64-ps3-elf/lib/libsysbase.a(getpid.o)
                              /usr/local/ps3dev/ppu/lib/gcc/powerpc64-ps3-elf/7.2.0/../../../../powerpc64-ps3-elf/lib/libc.a(lib_a-signal.o) (_getpid_r)
/usr/local/ps3dev/ppu/lib/gcc/powerpc64-ps3-elf/7.2.0/../../../../powerpc64-ps3-elf/lib/libsysbase.a(kill.o)
                              /usr/local/ps3dev/ppu/lib/gcc/powerpc64-ps3-elf/7.2.0/../../../../powerpc64-ps3-elf/lib/libc.a(lib_a-signal.o) (_kill_r)

Allocating common symbols
Common symbol       size              file

__hexdig            0x100             /usr/local/ps3dev/ppu/lib/gcc/powerpc64-ps3-elf/7.2.0/../../../../powerpc64-ps3-elf/lib/libc.a(lib_a-gdtoa-gethex.o)

Memory Configuration

Name             Origin             Length             Attributes
*default*        0x0000000000000000 0xffffffffffffffff

Linker script and memory map

                0x0000000000010000                PROVIDE (__executable_start, 0x10000)
                0x0000000000010200                . = (0x10000 + SIZEOF_HEADERS)

.interp
 *(.interp)

.hash
 *(.hash)

.dynsym
 *(.dynsym)

.dynstr
 *(.dynstr)

.gnu.version
 *(.gnu.version)

.gnu.version_d
 *(.gnu.version_d)

.gnu.version_r
 *(.gnu.version_r)

.rel.dyn
 *(.rel.init)
 *(.rel.text .rel.text.* .rel.gnu.linkonce.t.*)
 *(.rel.fini)
 *(.rel.rodata .rel.rodata.* .rel.gnu.linkonce.r.*)
 *(.rel.data.rel.ro*)
 *(.rel.data .rel.data.* .rel.gnu.linkonce.d.*)
 *(.rel.tdata .rel.tdata.* .rel.gnu.linkonce.td.*)
 *(.rel.tbss .rel.tbss.* .rel.gnu.linkonce.tb.*)
 *(.rel.ctors)
 *(.rel.dtors)
 *(.rel.got)
 *(.rel.sdata .rel.sdata.* .rel.gnu.linkonce.s.*)
 *(.rel.sbss .rel.sbss.* .rel.gnu.linkonce.sb.*)
 *(.rel.sdata2 .rel.sdata2.* .rel.gnu.linkonce.s2.*)
 *(.rel.sbss2 .rel.sbss2.* .rel.gnu.linkonce.sb2.*)
 *(.rel.bss .rel.bss.* .rel.gnu.linkonce.b.*)

.rela.dyn       0x0000000000010200        0x0
 *(.rela.init)
 *(.rela.text .rela.text.* .rela.gnu.linkonce.t.*)
 *(.rela.fini)
 *(.rela.rodata .rela.rodata.* .rela.gnu.linkonce.r.*)
 *(.rela.data .rela.data.* .rela.gnu.linkonce.d.*)
 *(.rela.tdata .rela.tdata.* .rela.gnu.linkonce.td.*)
 *(.rela.tbss .rela.tbss.* .rela.gnu.linkonce.tb.*)
 *(.rela.ctors)
 *(.rela.dtors)
 *(.rela.got)
 *(.rela.toc)
 .rela.toc      0x0000000000000000        0x0 linker stubs
 *(.rela.sdata .rela.sdata.* .rela.gnu.linkonce.s.*)
 *(.rela.sbss .rela.sbss.* .rela.gnu.linkonce.sb.*)
 *(.rela.sdata2 .rela.sdata2.* .rela.gnu.linkonce.s2.*)
 *(.rela.sbss2 .rela.sbss2.* .rela.gnu.linkonce.sb2.*)
 *(.rela.bss .rela.bss.* .rela.gnu.linkonce.b.*)
 .rela.iplt     0x0000000000000000        0x0 linker stubs
 .rela.sys_proc_prx_param
                0x0000000000000000        0x0 linker stubs
 .rela.opd      0x0000000000000000        0x0 linker stubs

.rel.plt
 *(.rel.plt)

.rela.plt
 *(.rela.plt)

.rela.tocbss
 *(.rela.tocbss)

.init           0x0000000000010200       0x2c
 *(.init)
 .init          0x0000000000010200        0xc /usr/local/ps3dev/ppu/lib/gcc/powerpc64-ps3-elf/7.2.0/../../../../powerpc64-ps3-elf/lib/lv2-crti.o
                0x0000000000010200                ._init
 .init          0x000000000001020c        0x8 /usr/local/ps3dev/ppu/lib/gcc/powerpc64-ps3-elf/7.2.0/crtbegin.o
 .init          0x0000000000010214        0x8 /usr/local/ps3dev/ppu/lib/gcc/powerpc64-ps3-elf/7.2.0/crtend.o
 .init          0x000000000001021c       0x10 /usr/local/ps3dev/ppu/lib/gcc/powerpc64-ps3-elf/7.2.0/../../../../powerpc64-ps3-elf/lib/lv2-crtn.o

.text           0x0000000000010230    0x18c34
 *(.text .stub .text.* .gnu.linkonce.t.*)
 .text          0x0000000000010230        0x0 /usr/local/ps3dev/ppu/lib/gcc/powerpc64-ps3-elf/7.2.0/../../../../powerpc64-ps3-elf/lib/lv2-crti.o
 .text          0x0000000000010230        0x0 /usr/local/ps3dev/ppu/lib/gcc/powerpc64-ps3-elf/7.2.0/crtbegin.o
 .text.deregister_tm_clones
                0x0000000000010230       0x54 /usr/local/ps3dev/ppu/lib/gcc/powerpc64-ps3-elf/7.2.0/crtbegin.o
 *fill*         0x0000000000010284        0x4 60000000
 .text.register_tm_clones
                0x0000000000010288       0x60 /usr/local/ps3dev/ppu/lib/gcc/powerpc64-ps3-elf/7.2.0/crtbegin.o
 .text.__do_global_dtors_aux
                0x00000000000102e8       0xd4 /usr/local/ps3dev/ppu/lib/gcc/powerpc64-ps3-elf/7.2.0/crtbegin.o
 *fill*         0x00000000000103bc        0x4 60000000
 .text.frame_dummy
                0x00000000000103c0       0x38 /usr/local/ps3dev/ppu/lib/gcc/powerpc64-ps3-elf/7.2.0/crtbegin.o
 .text          0x00000000000103f8       0x58 /usr/local/ps3dev/ppu/lib/gcc/powerpc64-ps3-elf/7.2.0/../../../../powerpc64-ps3-elf/lib/lv2-crt0.o
                0x00000000000103f8                ._start
 .text.startup.__syscalls_init
                0x0000000000010450      0x134 /usr/local/ps3dev/ppu/lib/gcc/powerpc64-ps3-elf/7.2.0/../../../../powerpc64-ps3-elf/lib/lv2-crt0.o
 *fill*         0x0000000000010584        0x4 60000000
 .text._initialize
                0x0000000000010588       0x40 /usr/local/ps3dev/ppu/lib/gcc/powerpc64-ps3-elf/7.2.0/../../../../powerpc64-ps3-elf/lib/lv2-crt0.o
                0x0000000000010588                ._initialize
 .text          0x00000000000105c8        0x0 /usr/local/ps3dev/ppu/lib/gcc/powerpc64-ps3-elf/7.2.0/../../../../powerpc64-ps3-elf/lib/lv2-sprx.o
 .text          0x00000000000105c8        0x0 main.o
 .text.drawFrame
                0x00000000000105c8      0x104 main.o
                0x00000000000105c8                .drawFrame
 *fill*         0x00000000000106cc        0x4 60000000
 .text.startup.main
                0x00000000000106d0      0x1cc main.o
                0x00000000000106d0                .main
 .text          0x000000000001089c        0x0 rsxutil.o
 *fill*         0x000000000001089c        0x4 60000000
 .text.waitFlip
                0x00000000000108a0       0x50 rsxutil.o
                0x00000000000108a0                .waitFlip
 .text.flip     0x00000000000108f0       0x7c rsxutil.o
                0x00000000000108f0                .flip
 *fill*         0x000000000001096c        0x4 60000000
 .text.makeBuffer
                0x0000000000010970      0x104 rsxutil.o
                0x0000000000010970                .makeBuffer
 *fill*         0x0000000000010a74        0x4 60000000
 .text.getResolution
                0x0000000000010a78       0xb8 rsxutil.o
                0x0000000000010a78                .getResolution
 .text.initScreen
                0x0000000000010b30      0x1e8 rsxutil.o
                0x0000000000010b30                .initScreen
 .text.setRenderTarget
                0x0000000000010d18       0xac rsxutil.o
                0x0000000000010d18                .setRenderTarget
 .text          0x0000000000010dc4        0x0 /usr/local/ps3dev/psl1ght/ppu/lib/libgcm_sys.a(sprx.o)
 .text          0x0000000000010dc4        0x0 /usr/local/ps3dev/psl1ght/ppu/lib/librsx.a(init.o)
 *fill*         0x0000000000010dc4        0x4 60000000
 .text.rsxInit  0x0000000000010dc8       0x68 /usr/local/ps3dev/psl1ght/ppu/lib/librsx.a(init.o)
                0x0000000000010dc8                .rsxInit
 .text.rsxSetupContextData
                0x0000000000010e30       0x38 /usr/local/ps3dev/psl1ght/ppu/lib/librsx.a(init.o)
                0x0000000000010e30                .rsxSetupContextData
 .text          0x0000000000010e68        0x0 /usr/local/ps3dev/psl1ght/ppu/lib/librsx.a(buffer.o)
 .text.rsxResetCommandBuffer
                0x0000000000010e68       0x80 /usr/local/ps3dev/psl1ght/ppu/lib/librsx.a(buffer.o)
                0x0000000000010e68                .rsxResetCommandBuffer
 .text.rsxFlushBuffer
                0x0000000000010ee8       0x78 /usr/local/ps3dev/psl1ght/ppu/lib/librsx.a(buffer.o)
                0x0000000000010ee8                .rsxFlushBuffer
 .text.rsxFinish
                0x0000000000010f60       0x84 /usr/local/ps3dev/psl1ght/ppu/lib/librsx.a(buffer.o)
                0x0000000000010f60                .rsxFinish
 .text          0x0000000000010fe4        0x0 /usr/local/ps3dev/psl1ght/ppu/lib/librsx.a(commands.o)
 *fill*         0x0000000000010fe4        0x4 60000000
 .text.rsxContextCallback.constprop.0
                0x0000000000010fe8       0x50 /usr/local/ps3dev/psl1ght/ppu/lib/librsx.a(commands.o)
 .text.rsxContextCallback
                0x0000000000011038       0x50 /usr/local/ps3dev/psl1ght/ppu/lib/librsx.a(commands.o)
                0x0000000000011038                .rsxContextCallback
 .text.rsxSetReturnCommand
                0x0000000000011088       0x90 /usr/local/ps3dev/psl1ght/ppu/lib/librsx.a(commands.o)
                0x0000000000011088                .rsxSetReturnCommand
 .text.rsxSetCallCommand
                0x0000000000011118       0x98 /usr/local/ps3dev/psl1ght/ppu/lib/librsx.a(commands.o)
                0x0000000000011118                .rsxSetCallCommand
 .text.rsxSetJumpCommand
                0x00000000000111b0       0x98 /usr/local/ps3dev/psl1ght/ppu/lib/librsx.a(commands.o)
                0x00000000000111b0                .rsxSetJumpCommand
 .text.rsxSetNopCommand
                0x0000000000011248      0x114 /usr/local/ps3dev/psl1ght/ppu/lib/librsx.a(commands.o)
                0x0000000000011248                .rsxSetNopCommand
 *fill*         0x000000000001135c        0x4 60000000
 .text.rsxSetClearColor
                0x0000000000011360       0xa0 /usr/local/ps3dev/psl1ght/ppu/lib/librsx.a(commands.o)
                0x0000000000011360                .rsxSetClearColor
 .text.rsxSetClearDepthValue
                0x0000000000011400       0xa0 /usr/local/ps3dev/psl1ght/ppu/lib/librsx.a(commands.o)
                0x0000000000011400                .rsxSetClearDepthValue
 .text.rsxSetReferenceCommand
                0x00000000000114a0       0xa0 /usr/local/ps3dev/psl1ght/ppu/lib/librsx.a(commands.o)
                0x00000000000114a0                .rsxSetReferenceCommand
 .text.rsxSetWriteBackendLabel
                0x0000000000011540       0xd0 /usr/local/ps3dev/psl1ght/ppu/lib/librsx.a(commands.o)
                0x0000000000011540                .rsxSetWriteBackendLabel
 .text.rsxSetWaitLabel
                0x0000000000011610       0xbc /usr/local/ps3dev/psl1ght/ppu/lib/librsx.a(commands.o)
                0x0000000000011610                .rsxSetWaitLabel
 *fill*         0x00000000000116cc        0x4 60000000
 .text.rsxSetWriteCommandLabel
                0x00000000000116d0       0xbc /usr/local/ps3dev/psl1ght/ppu/lib/librsx.a(commands.o)
                0x00000000000116d0                .rsxSetWriteCommandLabel
 *fill*         0x000000000001178c        0x4 60000000
 .text.rsxSetSurface
                0x0000000000011790      0x238 /usr/local/ps3dev/psl1ght/ppu/lib/librsx.a(commands.o)
                0x0000000000011790                .rsxSetSurface
 .text.rsxSetColorMask
                0x00000000000119c8       0xa0 /usr/local/ps3dev/psl1ght/ppu/lib/librsx.a(commands.o)
                0x00000000000119c8                .rsxSetColorMask
 .text.rsxSetColorMaskMRT
                0x0000000000011a68       0xa0 /usr/local/ps3dev/psl1ght/ppu/lib/librsx.a(commands.o)
                0x0000000000011a68                .rsxSetColorMaskMRT
 .text.rsxSetShadeModel
                0x0000000000011b08       0xa0 /usr/local/ps3dev/psl1ght/ppu/lib/librsx.a(commands.o)
                0x0000000000011b08                .rsxSetShadeModel
 .text.rsxSetViewport
                0x0000000000011ba8      0x1d4 /usr/local/ps3dev/psl1ght/ppu/lib/librsx.a(commands.o)
                0x0000000000011ba8                .rsxSetViewport
 *fill*         0x0000000000011d7c        0x4 60000000
 .text.rsxSetViewportClip
                0x0000000000011d80       0xc8 /usr/local/ps3dev/psl1ght/ppu/lib/librsx.a(commands.o)
                0x0000000000011d80                .rsxSetViewportClip
 .text.rsxSetUserClipPlaneControl
                0x0000000000011e48       0xf0 /usr/local/ps3dev/psl1ght/ppu/lib/librsx.a(commands.o)
                0x0000000000011e48                .rsxSetUserClipPlaneControl
 .text.rsxSetDepthTestEnable
                0x0000000000011f38       0xa0 /usr/local/ps3dev/psl1ght/ppu/lib/librsx.a(commands.o)
                0x0000000000011f38                .rsxSetDepthTestEnable
 .text.rsxSetDepthFunc
                0x0000000000011fd8       0xa0 /usr/local/ps3dev/psl1ght/ppu/lib/librsx.a(commands.o)
                0x0000000000011fd8                .rsxSetDepthFunc
 .text.rsxSetDepthWriteEnable
                0x0000000000012078       0xa0 /usr/local/ps3dev/psl1ght/ppu/lib/librsx.a(commands.o)
                0x0000000000012078                .rsxSetDepthWriteEnable
 .text.rsxSetCullFaceEnable
                0x0000000000012118       0xa0 /usr/local/ps3dev/psl1ght/ppu/lib/librsx.a(commands.o)
                0x0000000000012118                .rsxSetCullFaceEnable
 .text.rsxSetCullFace
                0x00000000000121b8       0xa0 /usr/local/ps3dev/psl1ght/ppu/lib/librsx.a(commands.o)
                0x00000000000121b8                .rsxSetCullFace
 .text.rsxSetFrontFace
                0x0000000000012258       0xa0 /usr/local/ps3dev/psl1ght/ppu/lib/librsx.a(commands.o)
                0x0000000000012258                .rsxSetFrontFace
 .text.rsxClearSurface
                0x00000000000122f8       0xb0 /usr/local/ps3dev/psl1ght/ppu/lib/librsx.a(commands.o)
                0x00000000000122f8                .rsxClearSurface
 .text.rsxLoadVertexProgramBlock
                0x00000000000123a8      0x220 /usr/local/ps3dev/psl1ght/ppu/lib/librsx.a(commands.o)
                0x00000000000123a8                .rsxLoadVertexProgramBlock
 .text.rsxLoadFragmentProgramLocation
                0x00000000000125c8      0x228 /usr/local/ps3dev/psl1ght/ppu/lib/librsx.a(commands.o)
                0x00000000000125c8                .rsxLoadFragmentProgramLocation
 .text.rsxLoadVertexProgramParameterBlock
                0x00000000000127f0      0x134 /usr/local/ps3dev/psl1ght/ppu/lib/librsx.a(commands.o)
                0x00000000000127f0                .rsxLoadVertexProgramParameterBlock
 *fill*         0x0000000000012924        0x4 60000000
 .text.rsxLoadVertexProgram
                0x0000000000012928       0xec /usr/local/ps3dev/psl1ght/ppu/lib/librsx.a(commands.o)
                0x0000000000012928                .rsxLoadVertexProgram
 *fill*         0x0000000000012a14        0x4 60000000
 .text.rsxSetVertexProgramParameter
                0x0000000000012a18       0x7c /usr/local/ps3dev/psl1ght/ppu/lib/librsx.a(commands.o)
                0x0000000000012a18                .rsxSetVertexProgramParameter
 *fill*         0x0000000000012a94        0x4 60000000
 .text.rsxDrawVertexBegin
                0x0000000000012a98       0xa0 /usr/local/ps3dev/psl1ght/ppu/lib/librsx.a(commands.o)
                0x0000000000012a98                .rsxDrawVertexBegin
 .text.rsxDrawVertexEnd
                0x0000000000012b38       0x98 /usr/local/ps3dev/psl1ght/ppu/lib/librsx.a(commands.o)
                0x0000000000012b38                .rsxDrawVertexEnd
 .text.rsxDrawVertex2f
                0x0000000000012bd0       0xd0 /usr/local/ps3dev/psl1ght/ppu/lib/librsx.a(commands.o)
                0x0000000000012bd0                .rsxDrawVertex2f
 .text.rsxDrawVertex3f
                0x0000000000012ca0       0xe0 /usr/local/ps3dev/psl1ght/ppu/lib/librsx.a(commands.o)
                0x0000000000012ca0                .rsxDrawVertex3f
 .text.rsxDrawVertex4f
                0x0000000000012d80      0x100 /usr/local/ps3dev/psl1ght/ppu/lib/librsx.a(commands.o)
                0x0000000000012d80                .rsxDrawVertex4f
 .text.rsxInvalidateTextureCache
                0x0000000000012e80       0xa0 /usr/local/ps3dev/psl1ght/ppu/lib/librsx.a(commands.o)
                0x0000000000012e80                .rsxInvalidateTextureCache
 .text.rsxLoadTexture
                0x0000000000012f20      0x140 /usr/local/ps3dev/psl1ght/ppu/lib/librsx.a(commands.o)
                0x0000000000012f20                .rsxLoadTexture
 .text.rsxTextureControl
                0x0000000000013060       0xe0 /usr/local/ps3dev/psl1ght/ppu/lib/librsx.a(commands.o)
                0x0000000000013060                .rsxTextureControl
 .text.rsxTextureFilter
                0x0000000000013140       0xd0 /usr/local/ps3dev/psl1ght/ppu/lib/librsx.a(commands.o)
                0x0000000000013140                .rsxTextureFilter
 .text.rsxTextureWrapMode
                0x0000000000013210      0x104 /usr/local/ps3dev/psl1ght/ppu/lib/librsx.a(commands.o)
                0x0000000000013210                .rsxTextureWrapMode
 *fill*         0x0000000000013314        0x4 60000000
 .text.rsxZControl
                0x0000000000013318       0xc0 /usr/local/ps3dev/psl1ght/ppu/lib/librsx.a(commands.o)
                0x0000000000013318                .rsxZControl
 .text.rsxBindVertexArrayAttrib
                0x00000000000133d8       0xf0 /usr/local/ps3dev/psl1ght/ppu/lib/librsx.a(commands.o)
                0x00000000000133d8                .rsxBindVertexArrayAttrib
 .text.rsxDrawVertexArray
                0x00000000000134c8      0x1f0 /usr/local/ps3dev/psl1ght/ppu/lib/librsx.a(commands.o)
                0x00000000000134c8                .rsxDrawVertexArray
 .text.rsxDrawIndexArray
                0x00000000000136b8      0x218 /usr/local/ps3dev/psl1ght/ppu/lib/librsx.a(commands.o)
                0x00000000000136b8                .rsxDrawIndexArray
 .text.rsxSetScissor
                0x00000000000138d0       0xc8 /usr/local/ps3dev/psl1ght/ppu/lib/librsx.a(commands.o)
                0x00000000000138d0                .rsxSetScissor
 .text.rsxInlineTransfer
                0x0000000000013998      0x23c /usr/local/ps3dev/psl1ght/ppu/lib/librsx.a(commands.o)
                0x0000000000013998                .rsxInlineTransfer
 *fill*         0x0000000000013bd4        0x4 60000000
 .text.rsxSetFragmentProgramParameter
                0x0000000000013bd8      0x2a4 /usr/local/ps3dev/psl1ght/ppu/lib/librsx.a(commands.o)
                0x0000000000013bd8                .rsxSetFragmentProgramParameter
 *fill*         0x0000000000013e7c        0x4 60000000
 .text.rsxSetBlendFunc
                0x0000000000013e80       0xc8 /usr/local/ps3dev/psl1ght/ppu/lib/librsx.a(commands.o)
                0x0000000000013e80                .rsxSetBlendFunc
 .text.rsxSetBlendEquation
                0x0000000000013f48       0xb0 /usr/local/ps3dev/psl1ght/ppu/lib/librsx.a(commands.o)
                0x0000000000013f48                .rsxSetBlendEquation
 .text.rsxSetBlendColor
                0x0000000000013ff8       0xb8 /usr/local/ps3dev/psl1ght/ppu/lib/librsx.a(commands.o)
                0x0000000000013ff8                .rsxSetBlendColor
 .text.rsxSetBlendEnable
                0x00000000000140b0       0xa0 /usr/local/ps3dev/psl1ght/ppu/lib/librsx.a(commands.o)
                0x00000000000140b0                .rsxSetBlendEnable
 .text.rsxSetTransformBranchBits
                0x0000000000014150       0xa0 /usr/local/ps3dev/psl1ght/ppu/lib/librsx.a(commands.o)
                0x0000000000014150                .rsxSetTransformBranchBits
 .text.rsxSetTransferData
                0x00000000000141f0      0x154 /usr/local/ps3dev/psl1ght/ppu/lib/librsx.a(commands.o)
                0x00000000000141f0                .rsxSetTransferData
 *fill*         0x0000000000014344        0x4 60000000
 .text.rsxSetTransferDataMode
                0x0000000000014348       0xe8 /usr/local/ps3dev/psl1ght/ppu/lib/librsx.a(commands.o)
                0x0000000000014348                .rsxSetTransferDataMode
 .text.rsxSetTransferDataOffset
                0x0000000000014430       0xb8 /usr/local/ps3dev/psl1ght/ppu/lib/librsx.a(commands.o)
                0x0000000000014430                .rsxSetTransferDataOffset
 .text.rsxSetTransferDataFormat
                0x00000000000144e8       0xe0 /usr/local/ps3dev/psl1ght/ppu/lib/librsx.a(commands.o)
                0x00000000000144e8                .rsxSetTransferDataFormat
 .text.rsxSetTransferImage
                0x00000000000145c8      0x2c0 /usr/local/ps3dev/psl1ght/ppu/lib/librsx.a(commands.o)
                0x00000000000145c8                .rsxSetTransferImage
 .text.rsxSetTransferScaleMode
                0x0000000000014888      0x178 /usr/local/ps3dev/psl1ght/ppu/lib/librsx.a(commands.o)
                0x0000000000014888                .rsxSetTransferScaleMode
 .text.rsxSetTransferScaleSurface
                0x0000000000014a00      0x1b0 /usr/local/ps3dev/psl1ght/ppu/lib/librsx.a(commands.o)
                0x0000000000014a00                .rsxSetTransferScaleSurface
 .text.rsxSetTimeStamp
                0x0000000000014bb0       0xa8 /usr/local/ps3dev/psl1ght/ppu/lib/librsx.a(commands.o)
                0x0000000000014bb0                .rsxSetTimeStamp
 .text          0x0000000000014c58        0x0 /usr/local/ps3dev/psl1ght/ppu/lib/librsx.a(mm.o)
 .text.rsxHeapInit
                0x0000000000014c58       0x78 /usr/local/ps3dev/psl1ght/ppu/lib/librsx.a(mm.o)
                0x0000000000014c58                .rsxHeapInit
 .text.rsxMemalign
                0x0000000000014cd0       0x58 /usr/local/ps3dev/psl1ght/ppu/lib/librsx.a(mm.o)
                0x0000000000014cd0                .rsxMemalign
 .text.rsxMalloc
                0x0000000000014d28       0x58 /usr/local/ps3dev/psl1ght/ppu/lib/librsx.a(mm.o)
                0x0000000000014d28                .rsxMalloc
 .text.rsxFree  0x0000000000014d80       0x48 /usr/local/ps3dev/psl1ght/ppu/lib/librsx.a(mm.o)
                0x0000000000014d80                .rsxFree
 .text          0x0000000000014dc8        0x0 /usr/local/ps3dev/psl1ght/ppu/lib/librsx.a(vertex_program.o)
 .text.rsxVertexProgramGetUCode
                0x0000000000014dc8       0x18 /usr/local/ps3dev/psl1ght/ppu/lib/librsx.a(vertex_program.o)
                0x0000000000014dc8                .rsxVertexProgramGetUCode
 .text.rsxVertexProgramGetConsts
                0x0000000000014de0       0x18 /usr/local/ps3dev/psl1ght/ppu/lib/librsx.a(vertex_program.o)
                0x0000000000014de0                .rsxVertexProgramGetConsts
 .text.rsxVertexProgramGetConst
                0x0000000000014df8       0xbc /usr/local/ps3dev/psl1ght/ppu/lib/librsx.a(vertex_program.o)
                0x0000000000014df8                .rsxVertexProgramGetConst
 *fill*         0x0000000000014eb4        0x4 60000000
 .text.rsxVertexProgramGetAttribs
                0x0000000000014eb8       0x18 /usr/local/ps3dev/psl1ght/ppu/lib/librsx.a(vertex_program.o)
                0x0000000000014eb8                .rsxVertexProgramGetAttribs
 .text.rsxVertexProgramGetAttrib
                0x0000000000014ed0       0xc8 /usr/local/ps3dev/psl1ght/ppu/lib/librsx.a(vertex_program.o)
                0x0000000000014ed0                .rsxVertexProgramGetAttrib
 .text          0x0000000000014f98        0x0 /usr/local/ps3dev/psl1ght/ppu/lib/librsx.a(fragment_program.o)
 .text.rsxFragmentProgramGetUCode
                0x0000000000014f98       0x24 /usr/local/ps3dev/psl1ght/ppu/lib/librsx.a(fragment_program.o)
                0x0000000000014f98                .rsxFragmentProgramGetUCode
 *fill*         0x0000000000014fbc        0x4 60000000
 .text.rsxFragmentProgramGetConsts
                0x0000000000014fc0       0x18 /usr/local/ps3dev/psl1ght/ppu/lib/librsx.a(fragment_program.o)
                0x0000000000014fc0                .rsxFragmentProgramGetConsts
 .text.rsxFragmentProgramGetConst
                0x0000000000014fd8       0xbc /usr/local/ps3dev/psl1ght/ppu/lib/librsx.a(fragment_program.o)
                0x0000000000014fd8                .rsxFragmentProgramGetConst
 *fill*         0x0000000000015094        0x4 60000000
 .text.rsxFragmentProgramGetAttribs
                0x0000000000015098       0x18 /usr/local/ps3dev/psl1ght/ppu/lib/librsx.a(fragment_program.o)
                0x0000000000015098                .rsxFragmentProgramGetAttribs
 .text.rsxFragmentProgramGetAttrib
                0x00000000000150b0       0xc8 /usr/local/ps3dev/psl1ght/ppu/lib/librsx.a(fragment_program.o)
                0x00000000000150b0                .rsxFragmentProgramGetAttrib
 .text.rsxFragmentProgramGetConstOffsetTable
                0x0000000000015178       0x14 /usr/local/ps3dev/psl1ght/ppu/lib/librsx.a(fragment_program.o)
                0x0000000000015178                .rsxFragmentProgramGetConstOffsetTable
 .text          0x000000000001518c        0x0 /usr/local/ps3dev/psl1ght/ppu/lib/libsysutil.a(sprx.o)
 .text          0x000000000001518c        0x0 /usr/local/ps3dev/psl1ght/ppu/lib/libio.a(sprx.o)
 .text          0x000000000001518c        0x0 /usr/local/ps3dev/psl1ght/ppu/lib/librt.a(sbrk.o)
 *fill*         0x000000000001518c        0x4 60000000
 .text.startup.sbrk_init
                0x0000000000015190       0xb8 /usr/local/ps3dev/psl1ght/ppu/lib/librt.a(sbrk.o)
 .text.sbrk_deinit
                0x0000000000015248       0xc8 /usr/local/ps3dev/psl1ght/ppu/lib/librt.a(sbrk.o)
 .text.__librt_sbrk_r
                0x0000000000015310      0x2f4 /usr/local/ps3dev/psl1ght/ppu/lib/librt.a(sbrk.o)
                0x0000000000015310                .__librt_sbrk_r
 .text          0x0000000000015604        0x0 /usr/local/ps3dev/psl1ght/ppu/lib/librt.a(exit.o)
 *fill*         0x0000000000015604        0x4 60000000
 .text.__librt_exit
                0x0000000000015608       0x30 /usr/local/ps3dev/psl1ght/ppu/lib/librt.a(exit.o)
                0x0000000000015608                .__librt_exit
 .text          0x0000000000015638        0x0 /usr/local/ps3dev/psl1ght/ppu/lib/librt.a(close.o)
 .text.__librt_close_r
                0x0000000000015638       0x88 /usr/local/ps3dev/psl1ght/ppu/lib/librt.a(close.o)
                0x0000000000015638                .__librt_close_r
 .text          0x00000000000156c0        0x0 /usr/local/ps3dev/psl1ght/ppu/lib/librt.a(lseek.o)
 .text.__librt_lseek_r
                0x00000000000156c0       0x8c /usr/local/ps3dev/psl1ght/ppu/lib/librt.a(lseek.o)
                0x00000000000156c0                .__librt_lseek_r
 *fill*         0x000000000001574c        0x4 60000000
 .text.__librt_lseek64_r
                0x0000000000015750       0x10 /usr/local/ps3dev/psl1ght/ppu/lib/librt.a(lseek.o)
                0x0000000000015750                .__librt_lseek64_r
 .text          0x0000000000015760        0x0 /usr/local/ps3dev/psl1ght/ppu/lib/librt.a(read.o)
 .text.__librt_read_r
                0x0000000000015760      0x10c /usr/local/ps3dev/psl1ght/ppu/lib/librt.a(read.o)
                0x0000000000015760                .__librt_read_r
 .text          0x000000000001586c        0x0 /usr/local/ps3dev/psl1ght/ppu/lib/librt.a(open.o)
 *fill*         0x000000000001586c        0x4 60000000
 .text.__librt_open_r
                0x0000000000015870      0x180 /usr/local/ps3dev/psl1ght/ppu/lib/librt.a(open.o)
                0x0000000000015870                .__librt_open_r
 .text          0x00000000000159f0        0x0 /usr/local/ps3dev/psl1ght/ppu/lib/librt.a(sleep.o)
 .text.__librt_usleep_r
                0x00000000000159f0       0x50 /usr/local/ps3dev/psl1ght/ppu/lib/librt.a(sleep.o)
                0x00000000000159f0                .__librt_usleep_r
 .text.__librt_sleep_r
                0x0000000000015a40       0x6c /usr/local/ps3dev/psl1ght/ppu/lib/librt.a(sleep.o)
                0x0000000000015a40                .__librt_sleep_r
 .text          0x0000000000015aac        0x0 /usr/local/ps3dev/psl1ght/ppu/lib/librt.a(write.o)
 *fill*         0x0000000000015aac        0x4 60000000
 .text.__librt_write_r
                0x0000000000015ab0      0x104 /usr/local/ps3dev/psl1ght/ppu/lib/librt.a(write.o)
                0x0000000000015ab0                .__librt_write_r
 .text          0x0000000000015bb4        0x0 /usr/local/ps3dev/psl1ght/ppu/lib/librt.a(fstat.o)
 *fill*         0x0000000000015bb4        0x4 60000000
 .text.__librt_fstat_r
                0x0000000000015bb8       0xd0 /usr/local/ps3dev/psl1ght/ppu/lib/librt.a(fstat.o)
                0x0000000000015bb8                .__librt_fstat_r
 .text.__librt_fstat64_r
                0x0000000000015c88       0x10 /usr/local/ps3dev/psl1ght/ppu/lib/librt.a(fstat.o)
                0x0000000000015c88                .__librt_fstat64_r
 .text.__librt_stat_r
                0x0000000000015c98       0xd0 /usr/local/ps3dev/psl1ght/ppu/lib/librt.a(fstat.o)
                0x0000000000015c98                .__librt_stat_r
 .text.__librt_stat64_r
                0x0000000000015d68       0x10 /usr/local/ps3dev/psl1ght/ppu/lib/librt.a(fstat.o)
                0x0000000000015d68                .__librt_stat64_r
 .text          0x0000000000015d78        0x0 /usr/local/ps3dev/psl1ght/ppu/lib/librt.a(socket.o)
 .text.accept   0x0000000000015d78       0xe0 /usr/local/ps3dev/psl1ght/ppu/lib/librt.a(socket.o)
                0x0000000000015d78                .accept
 .text.bind     0x0000000000015e58       0x44 /usr/local/ps3dev/psl1ght/ppu/lib/librt.a(socket.o)
                0x0000000000015e58                .bind
 *fill*         0x0000000000015e9c        0x4 60000000
 .text.connect  0x0000000000015ea0       0x44 /usr/local/ps3dev/psl1ght/ppu/lib/librt.a(socket.o)
                0x0000000000015ea0                .connect
 *fill*         0x0000000000015ee4        0x4 60000000
 .text.listen   0x0000000000015ee8       0x44 /usr/local/ps3dev/psl1ght/ppu/lib/librt.a(socket.o)
                0x0000000000015ee8                .listen
 *fill*         0x0000000000015f2c        0x4 60000000
 .text.socket   0x0000000000015f30       0x5c /usr/local/ps3dev/psl1ght/ppu/lib/librt.a(socket.o)
                0x0000000000015f30                .socket
 *fill*         0x0000000000015f8c        0x4 60000000
 .text.send     0x0000000000015f90       0x4c /usr/local/ps3dev/psl1ght/ppu/lib/librt.a(socket.o)
                0x0000000000015f90                .send
 *fill*         0x0000000000015fdc        0x4 60000000
 .text.sendto   0x0000000000015fe0       0x44 /usr/local/ps3dev/psl1ght/ppu/lib/librt.a(socket.o)
                0x0000000000015fe0                .sendto
 *fill*         0x0000000000016024        0x4 60000000
 .text.recv     0x0000000000016028       0x4c /usr/local/ps3dev/psl1ght/ppu/lib/librt.a(socket.o)
                0x0000000000016028                .recv
 *fill*         0x0000000000016074        0x4 60000000
 .text.recvfrom
                0x0000000000016078       0xd8 /usr/local/ps3dev/psl1ght/ppu/lib/librt.a(socket.o)
                0x0000000000016078                .recvfrom
 .text.shutdown
                0x0000000000016150       0x44 /usr/local/ps3dev/psl1ght/ppu/lib/librt.a(socket.o)
                0x0000000000016150                .shutdown
 *fill*         0x0000000000016194        0x4 60000000
 .text.inet_aton
                0x0000000000016198       0xbc /usr/local/ps3dev/psl1ght/ppu/lib/librt.a(socket.o)
                0x0000000000016198                .inet_aton
 *fill*         0x0000000000016254        0x4 60000000
 .text.inet_pton
                0x0000000000016258       0x48 /usr/local/ps3dev/psl1ght/ppu/lib/librt.a(socket.o)
                0x0000000000016258                .inet_pton
 .text.select   0x00000000000162a0       0x3c /usr/local/ps3dev/psl1ght/ppu/lib/librt.a(socket.o)
                0x00000000000162a0                .select
 *fill*         0x00000000000162dc        0x4 60000000
 .text.closesocket
                0x00000000000162e0       0x44 /usr/local/ps3dev/psl1ght/ppu/lib/librt.a(socket.o)
                0x00000000000162e0                .closesocket
 .text          0x0000000000016324        0x0 /usr/local/ps3dev/psl1ght/ppu/lib/librt.a(lock.o)
 *fill*         0x0000000000016324        0x4 60000000
 .text.__librt_sys_lwmutex_create_r
                0x0000000000016328       0x38 /usr/local/ps3dev/psl1ght/ppu/lib/librt.a(lock.o)
                0x0000000000016328                .__librt_sys_lwmutex_create_r
 .text.__librt_sys_lwmutex_destroy_r
                0x0000000000016360       0x34 /usr/local/ps3dev/psl1ght/ppu/lib/librt.a(lock.o)
                0x0000000000016360                .__librt_sys_lwmutex_destroy_r
 *fill*         0x0000000000016394        0x4 60000000
 .text.__librt_sys_lwmutex_lock_r
                0x0000000000016398       0x38 /usr/local/ps3dev/psl1ght/ppu/lib/librt.a(lock.o)
                0x0000000000016398                .__librt_sys_lwmutex_lock_r
 .text.__librt_sys_lwmutex_trylock_r
                0x00000000000163d0       0x34 /usr/local/ps3dev/psl1ght/ppu/lib/librt.a(lock.o)
                0x00000000000163d0                .__librt_sys_lwmutex_trylock_r
 *fill*         0x0000000000016404        0x4 60000000
 .text.__librt_sys_lwmutex_unlock_r
                0x0000000000016408       0x34 /usr/local/ps3dev/psl1ght/ppu/lib/librt.a(lock.o)
                0x0000000000016408                .__librt_sys_lwmutex_unlock_r
 .text          0x000000000001643c        0x0 /usr/local/ps3dev/psl1ght/ppu/lib/librt.a(dirent.o)
 *fill*         0x000000000001643c        0x4 60000000
 .text.readdir_i
                0x0000000000016440      0x10c /usr/local/ps3dev/psl1ght/ppu/lib/librt.a(dirent.o)
 *fill*         0x000000000001654c        0x4 60000000
 .text.__librt_opendir_r
                0x0000000000016550      0x114 /usr/local/ps3dev/psl1ght/ppu/lib/librt.a(dirent.o)
                0x0000000000016550                .__librt_opendir_r
 *fill*         0x0000000000016664        0x4 60000000
 .text.__librt_readdir_r
                0x0000000000016668       0x84 /usr/local/ps3dev/psl1ght/ppu/lib/librt.a(dirent.o)
                0x0000000000016668                .__librt_readdir_r
 *fill*         0x00000000000166ec        0x4 60000000
 .text.__librt_readdir_r_r
                0x00000000000166f0       0x58 /usr/local/ps3dev/psl1ght/ppu/lib/librt.a(dirent.o)
                0x00000000000166f0                .__librt_readdir_r_r
 .text.__librt_closedir_r
                0x0000000000016748       0x84 /usr/local/ps3dev/psl1ght/ppu/lib/librt.a(dirent.o)
                0x0000000000016748                .__librt_closedir_r
 *fill*         0x00000000000167cc        0x4 60000000
 .text.__librt_telldir_r
                0x00000000000167d0       0x24 /usr/local/ps3dev/psl1ght/ppu/lib/librt.a(dirent.o)
                0x00000000000167d0                .__librt_telldir_r
 *fill*         0x00000000000167f4        0x4 60000000
 .text.__librt_rewinddir_r
                0x00000000000167f8       0x18 /usr/local/ps3dev/psl1ght/ppu/lib/librt.a(dirent.o)
                0x00000000000167f8                .__librt_rewinddir_r
 .text.__librt_seekdir_r
                0x0000000000016810       0x18 /usr/local/ps3dev/psl1ght/ppu/lib/librt.a(dirent.o)
                0x0000000000016810                .__librt_seekdir_r
 .text          0x0000000000016828        0x0 /usr/local/ps3dev/psl1ght/ppu/lib/librt.a(mkdir.o)
 .text.__librt_mkdir_r
                0x0000000000016828       0x60 /usr/local/ps3dev/psl1ght/ppu/lib/librt.a(mkdir.o)
                0x0000000000016828                .__librt_mkdir_r
 .text          0x0000000000016888        0x0 /usr/local/ps3dev/psl1ght/ppu/lib/librt.a(times.o)
 .text.__librt_times_r
                0x0000000000016888       0x1c /usr/local/ps3dev/psl1ght/ppu/lib/librt.a(times.o)
                0x0000000000016888                .__librt_times_r
 .text          0x00000000000168a4        0x0 /usr/local/ps3dev/psl1ght/ppu/lib/librt.a(umask.o)
 *fill*         0x00000000000168a4        0x4 60000000
 .text.__librt_umask_r
                0x00000000000168a8       0x20 /usr/local/ps3dev/psl1ght/ppu/lib/librt.a(umask.o)
                0x00000000000168a8                .__librt_umask_r
 .text          0x00000000000168c8        0x0 /usr/local/ps3dev/psl1ght/ppu/lib/librt.a(lv2errno.o)
 .text.lv2error
                0x00000000000168c8      0x434 /usr/local/ps3dev/psl1ght/ppu/lib/librt.a(lv2errno.o)
                0x00000000000168c8                .lv2error
 *fill*         0x0000000000016cfc        0x4 60000000
 .text.lv2errno
                0x0000000000016d00       0x68 /usr/local/ps3dev/psl1ght/ppu/lib/librt.a(lv2errno.o)
                0x0000000000016d00                .lv2errno
 .text.lv2errno_r
                0x0000000000016d68       0x58 /usr/local/ps3dev/psl1ght/ppu/lib/librt.a(lv2errno.o)
                0x0000000000016d68                .lv2errno_r
 .text          0x0000000000016dc0        0x0 /usr/local/ps3dev/psl1ght/ppu/lib/librt.a(heap.o)
 .text.heapInit
                0x0000000000016dc0      0x118 /usr/local/ps3dev/psl1ght/ppu/lib/librt.a(heap.o)
                0x0000000000016dc0                .heapInit
 .text.heapAllocate
                0x0000000000016ed8      0x184 /usr/local/ps3dev/psl1ght/ppu/lib/librt.a(heap.o)
                0x0000000000016ed8                .heapAllocate
 *fill*         0x000000000001705c        0x4 60000000
 .text.heapAllocateAligned
                0x0000000000017060      0x224 /usr/local/ps3dev/psl1ght/ppu/lib/librt.a(heap.o)
                0x0000000000017060                .heapAllocateAligned
 *fill*         0x0000000000017284        0x4 60000000
 .text.heapFree
                0x0000000000017288      0x238 /usr/local/ps3dev/psl1ght/ppu/lib/librt.a(heap.o)
                0x0000000000017288                .heapFree
 .text          0x00000000000174c0        0x0 /usr/local/ps3dev/psl1ght/ppu/lib/librt.a(chmod.o)
 .text.__librt_chmod_r
                0x00000000000174c0       0x54 /usr/local/ps3dev/psl1ght/ppu/lib/librt.a(chmod.o)
                0x00000000000174c0                .__librt_chmod_r
 .text          0x0000000000017514        0x0 /usr/local/ps3dev/psl1ght/ppu/lib/librt.a(rmdir.o)
 *fill*         0x0000000000017514        0x4 60000000
 .text.__librt_rmdir_r
                0x0000000000017518       0x50 /usr/local/ps3dev/psl1ght/ppu/lib/librt.a(rmdir.o)
                0x0000000000017518                .__librt_rmdir_r
 .text          0x0000000000017568        0x0 /usr/local/ps3dev/psl1ght/ppu/lib/librt.a(isatty.o)
 .text.__librt_isatty_r
                0x0000000000017568       0x2c /usr/local/ps3dev/psl1ght/ppu/lib/librt.a(isatty.o)
                0x0000000000017568                .__librt_isatty_r
 .text          0x0000000000017594        0x0 /usr/local/ps3dev/psl1ght/ppu/lib/librt.a(gettod.o)
 *fill*         0x0000000000017594        0x4 60000000
 .text.__librt_gettod_r
                0x0000000000017598       0xb8 /usr/local/ps3dev/psl1ght/ppu/lib/librt.a(gettod.o)
                0x0000000000017598                .__librt_gettod_r
 .text          0x0000000000017650        0x0 /usr/local/ps3dev/psl1ght/ppu/lib/librt.a(settod.o)
 .text.__librt_settod_r
                0x0000000000017650       0x58 /usr/local/ps3dev/psl1ght/ppu/lib/librt.a(settod.o)
                0x0000000000017650                .__librt_settod_r
 .text          0x00000000000176a8        0x0 /usr/local/ps3dev/psl1ght/ppu/lib/liblv2.a(sprx.o)
 .text          0x00000000000176a8        0x0 /usr/local/ps3dev/ppu/lib/gcc/powerpc64-ps3-elf/7.2.0/../../../../powerpc64-ps3-elf/lib/libsysbase.a(syscalls.o)
 .text          0x00000000000176a8        0x0 /usr/local/ps3dev/ppu/lib/gcc/powerpc64-ps3-elf/7.2.0/../../../../powerpc64-ps3-elf/lib/libsysbase.a(sleep.o)
 .text.usleep   0x00000000000176a8       0x80 /usr/local/ps3dev/ppu/lib/gcc/powerpc64-ps3-elf/7.2.0/../../../../powerpc64-ps3-elf/lib/libsysbase.a(sleep.o)
                0x00000000000176a8                .usleep
 .text.sleep    0x0000000000017728       0x84 /usr/local/ps3dev/ppu/lib/gcc/powerpc64-ps3-elf/7.2.0/../../../../powerpc64-ps3-elf/lib/libsysbase.a(sleep.o)
                0x0000000000017728                .sleep
 .text          0x00000000000177ac        0x0 /usr/local/ps3dev/ppu/lib/gcc/powerpc64-ps3-elf/7.2.0/../../../../powerpc64-ps3-elf/lib/libc.a(lib_a-calloc.o)
 *fill*         0x00000000000177ac        0x4 60000000
 .text.calloc   0x00000000000177b0       0x58 /usr/local/ps3dev/ppu/lib/gcc/powerpc64-ps3-elf/7.2.0/../../../../powerpc64-ps3-elf/lib/libc.a(lib_a-calloc.o)
                0x00000000000177b0                .calloc
 .text          0x0000000000017808        0x0 /usr/local/ps3dev/ppu/lib/gcc/powerpc64-ps3-elf/7.2.0/../../../../powerpc64-ps3-elf/lib/libc.a(lib_a-callocr.o)
 .text._calloc_r
                0x0000000000017808       0xdc /usr/local/ps3dev/ppu/lib/gcc/powerpc64-ps3-elf/7.2.0/../../../../powerpc64-ps3-elf/lib/libc.a(lib_a-callocr.o)
                0x0000000000017808                ._calloc_r
 .text          0x00000000000178e4        0x0 /usr/local/ps3dev/ppu/lib/gcc/powerpc64-ps3-elf/7.2.0/../../../../powerpc64-ps3-elf/lib/libc.a(lib_a-errno.o)
 *fill*         0x00000000000178e4        0x4 60000000
 .text.__errno  0x00000000000178e8       0x30 /usr/local/ps3dev/ppu/lib/gcc/powerpc64-ps3-elf/7.2.0/../../../../powerpc64-ps3-elf/lib/libc.a(lib_a-errno.o)
                0x00000000000178e8                .__errno
 .text          0x0000000000017918        0x0 /usr/local/ps3dev/ppu/lib/gcc/powerpc64-ps3-elf/7.2.0/../../../../powerpc64-ps3-elf/lib/libc.a(lib_a-exit.o)
 .text.exit     0x0000000000017918       0x68 /usr/local/ps3dev/ppu/lib/gcc/powerpc64-ps3-elf/7.2.0/../../../../powerpc64-ps3-elf/lib/libc.a(lib_a-exit.o)
                0x0000000000017918                .exit
 .text          0x0000000000017980        0x0 /usr/local/ps3dev/ppu/lib/gcc/powerpc64-ps3-elf/7.2.0/../../../../powerpc64-ps3-elf/lib/libc.a(lib_a-getreent.o)
 .text.__getreent
                0x0000000000017980      0x1b4 /usr/local/ps3dev/ppu/lib/gcc/powerpc64-ps3-elf/7.2.0/../../../../powerpc64-ps3-elf/lib/libc.a(lib_a-getreent.o)
                0x0000000000017980                .__getreent
 .text          0x0000000000017b34        0x0 /usr/local/ps3dev/ppu/lib/gcc/powerpc64-ps3-elf/7.2.0/../../../../powerpc64-ps3-elf/lib/libc.a(lib_a-impure.o)
 .text          0x0000000000017b34        0x0 /usr/local/ps3dev/ppu/lib/gcc/powerpc64-ps3-elf/7.2.0/../../../../powerpc64-ps3-elf/lib/libc.a(lib_a-malign.o)
 *fill*         0x0000000000017b34        0x4 60000000
 .text.memalign
                0x0000000000017b38       0x58 /usr/local/ps3dev/ppu/lib/gcc/powerpc64-ps3-elf/7.2.0/../../../../powerpc64-ps3-elf/lib/libc.a(lib_a-malign.o)
                0x0000000000017b38                .memalign
 .text          0x0000000000017b90        0x0 /usr/local/ps3dev/ppu/lib/gcc/powerpc64-ps3-elf/7.2.0/../../../../powerpc64-ps3-elf/lib/libc.a(lib_a-malignr.o)
 .text._memalign_r
                0x0000000000017b90      0x224 /usr/local/ps3dev/ppu/lib/gcc/powerpc64-ps3-elf/7.2.0/../../../../powerpc64-ps3-elf/lib/libc.a(lib_a-malignr.o)
                0x0000000000017b90                ._memalign_r
 .text          0x0000000000017db4        0x0 /usr/local/ps3dev/ppu/lib/gcc/powerpc64-ps3-elf/7.2.0/../../../../powerpc64-ps3-elf/lib/libc.a(lib_a-malloc.o)
 *fill*         0x0000000000017db4        0x4 60000000
 .text.malloc   0x0000000000017db8       0x48 /usr/local/ps3dev/ppu/lib/gcc/powerpc64-ps3-elf/7.2.0/../../../../powerpc64-ps3-elf/lib/libc.a(lib_a-malloc.o)
                0x0000000000017db8                .malloc
 .text.free     0x0000000000017e00       0x48 /usr/local/ps3dev/ppu/lib/gcc/powerpc64-ps3-elf/7.2.0/../../../../powerpc64-ps3-elf/lib/libc.a(lib_a-malloc.o)
                0x0000000000017e00                .free
 .text          0x0000000000017e48        0x0 /usr/local/ps3dev/ppu/lib/gcc/powerpc64-ps3-elf/7.2.0/../../../../powerpc64-ps3-elf/lib/libc.a(lib_a-mallocr.o)
 .text._malloc_r
                0x0000000000017e48      0x9e4 /usr/local/ps3dev/ppu/lib/gcc/powerpc64-ps3-elf/7.2.0/../../../../powerpc64-ps3-elf/lib/libc.a(lib_a-mallocr.o)
                0x0000000000017e48                ._malloc_r
 .text          0x000000000001882c        0x0 /usr/local/ps3dev/ppu/lib/gcc/powerpc64-ps3-elf/7.2.0/../../../../powerpc64-ps3-elf/lib/libc.a(lib_a-memset.o)
 *fill*         0x000000000001882c        0x4 60000000
 .text.memset   0x0000000000018830      0x138 /usr/local/ps3dev/ppu/lib/gcc/powerpc64-ps3-elf/7.2.0/../../../../powerpc64-ps3-elf/lib/libc.a(lib_a-memset.o)
                0x0000000000018830                .memset
 .text          0x0000000000018968        0x0 /usr/local/ps3dev/ppu/lib/gcc/powerpc64-ps3-elf/7.2.0/../../../../powerpc64-ps3-elf/lib/libc.a(lib_a-mlock.o)
 .text.__malloc_lock
                0x0000000000018968       0x34 /usr/local/ps3dev/ppu/lib/gcc/powerpc64-ps3-elf/7.2.0/../../../../powerpc64-ps3-elf/lib/libc.a(lib_a-mlock.o)
                0x0000000000018968                .__malloc_lock
 *fill*         0x000000000001899c        0x4 60000000
 .text.__malloc_unlock
                0x00000000000189a0       0x34 /usr/local/ps3dev/ppu/lib/gcc/powerpc64-ps3-elf/7.2.0/../../../../powerpc64-ps3-elf/lib/libc.a(lib_a-mlock.o)
                0x00000000000189a0                .__malloc_unlock
 .text          0x00000000000189d4        0x0 /usr/local/ps3dev/ppu/lib/gcc/powerpc64-ps3-elf/7.2.0/../../../../powerpc64-ps3-elf/lib/libc.a(lib_a-sscanf.o)
 *fill*         0x00000000000189d4        0x4 60000000
 .text.sscanf   0x00000000000189d8       0xa8 /usr/local/ps3dev/ppu/lib/gcc/powerpc64-ps3-elf/7.2.0/../../../../powerpc64-ps3-elf/lib/libc.a(lib_a-sscanf.o)
                0x00000000000189d8                .sscanf
 .text._sscanf_r
                0x0000000000018a80       0xa8 /usr/local/ps3dev/ppu/lib/gcc/powerpc64-ps3-elf/7.2.0/../../../../powerpc64-ps3-elf/lib/libc.a(lib_a-sscanf.o)
                0x0000000000018a80                ._sscanf_r
 .text          0x0000000000018b28        0x0 /usr/local/ps3dev/ppu/lib/gcc/powerpc64-ps3-elf/7.2.0/../../../../powerpc64-ps3-elf/lib/libc.a(lib_a-stdio.o)
 .text.__sread  0x0000000000018b28       0x7c /usr/local/ps3dev/ppu/lib/gcc/powerpc64-ps3-elf/7.2.0/../../../../powerpc64-ps3-elf/lib/libc.a(lib_a-stdio.o)
                0x0000000000018b28                .__sread
 *fill*         0x0000000000018ba4        0x4 60000000
 .text.__seofread
                0x0000000000018ba8       0x14 /usr/local/ps3dev/ppu/lib/gcc/powerpc64-ps3-elf/7.2.0/../../../../powerpc64-ps3-elf/lib/libc.a(lib_a-stdio.o)
                0x0000000000018ba8                .__seofread
 *fill*         0x0000000000018bbc        0x4 60000000
 .text.__swrite
                0x0000000000018bc0       0xb0 /usr/local/ps3dev/ppu/lib/gcc/powerpc64-ps3-elf/7.2.0/../../../../powerpc64-ps3-elf/lib/libc.a(lib_a-stdio.o)
                0x0000000000018bc0                .__swrite
 .text.__sseek  0x0000000000018c70       0x78 /usr/local/ps3dev/ppu/lib/gcc/powerpc64-ps3-elf/7.2.0/../../../../powerpc64-ps3-elf/lib/libc.a(lib_a-stdio.o)
                0x0000000000018c70                .__sseek
 .text.__sclose
                0x0000000000018ce8       0x38 /usr/local/ps3dev/ppu/lib/gcc/powerpc64-ps3-elf/7.2.0/../../../../powerpc64-ps3-elf/lib/libc.a(lib_a-stdio.o)
                0x0000000000018ce8                .__sclose
 .text          0x0000000000018d20        0x0 /usr/local/ps3dev/ppu/lib/gcc/powerpc64-ps3-elf/7.2.0/../../../../powerpc64-ps3-elf/lib/libc.a(lib_a-strcasecmp.o)
 .text.strcasecmp
                0x0000000000018d20       0x8c /usr/local/ps3dev/ppu/lib/gcc/powerpc64-ps3-elf/7.2.0/../../../../powerpc64-ps3-elf/lib/libc.a(lib_a-strcasecmp.o)
                0x0000000000018d20                .strcasecmp
 .text          0x0000000000018dac        0x0 /usr/local/ps3dev/ppu/lib/gcc/powerpc64-ps3-elf/7.2.0/../../../../powerpc64-ps3-elf/lib/libc.a(lib_a-strlen.o)
 *fill*         0x0000000000018dac        0x4 60000000
 .text.strlen   0x0000000000018db0       0xc4 /usr/local/ps3dev/ppu/lib/gcc/powerpc64-ps3-elf/7.2.0/../../../../powerpc64-ps3-elf/lib/libc.a(lib_a-strlen.o)
                0x0000000000018db0                .strlen
 .text          0x0000000000018e74        0x0 /usr/local/ps3dev/ppu/lib/gcc/powerpc64-ps3-elf/7.2.0/../../../../powerpc64-ps3-elf/lib/libc.a(lib_a-strncpy.o)
 *fill*         0x0000000000018e74        0x4 60000000
 .text.strncpy  0x0000000000018e78      0x118 /usr/local/ps3dev/ppu/lib/gcc/powerpc64-ps3-elf/7.2.0/../../../../powerpc64-ps3-elf/lib/libc.a(lib_a-strncpy.o)
                0x0000000000018e78                .strncpy
 .text          0x0000000000018f90        0x0 /usr/local/ps3dev/ppu/lib/gcc/powerpc64-ps3-elf/7.2.0/../../../../powerpc64-ps3-elf/lib/libc.a(lib_a-svfscanf.o)
 .text.__ssvfscanf_r
                0x0000000000018f90     0x1864 /usr/local/ps3dev/ppu/lib/gcc/powerpc64-ps3-elf/7.2.0/../../../../powerpc64-ps3-elf/lib/libc.a(lib_a-svfscanf.o)
                0x0000000000018f90                .__ssvfscanf_r
 .text          0x000000000001a7f4        0x0 /usr/local/ps3dev/ppu/lib/gcc/powerpc64-ps3-elf/7.2.0/../../../../powerpc64-ps3-elf/lib/libc.a(lib_a-__call_atexit.o)
 *fill*         0x000000000001a7f4        0x4 60000000
 .text.__call_exitprocs
                0x000000000001a7f8      0x24c /usr/local/ps3dev/ppu/lib/gcc/powerpc64-ps3-elf/7.2.0/../../../../powerpc64-ps3-elf/lib/libc.a(lib_a-__call_atexit.o)
                0x000000000001a7f8                .__call_exitprocs
 .text          0x000000000001aa44        0x0 /usr/local/ps3dev/ppu/lib/gcc/powerpc64-ps3-elf/7.2.0/../../../../powerpc64-ps3-elf/lib/libc.a(lib_a-ctype_.o)
 .text          0x000000000001aa44        0x0 /usr/local/ps3dev/ppu/lib/gcc/powerpc64-ps3-elf/7.2.0/../../../../powerpc64-ps3-elf/lib/libc.a(lib_a-freer.o)
 *fill*         0x000000000001aa44        0x4 60000000
 .text._malloc_trim_r
                0x000000000001aa48      0x15c /usr/local/ps3dev/ppu/lib/gcc/powerpc64-ps3-elf/7.2.0/../../../../powerpc64-ps3-elf/lib/libc.a(lib_a-freer.o)
                0x000000000001aa48                ._malloc_trim_r
 *fill*         0x000000000001aba4        0x4 60000000
 .text._free_r  0x000000000001aba8      0x3b0 /usr/local/ps3dev/ppu/lib/gcc/powerpc64-ps3-elf/7.2.0/../../../../powerpc64-ps3-elf/lib/libc.a(lib_a-freer.o)
                0x000000000001aba8                ._free_r
 .text          0x000000000001af58        0x0 /usr/local/ps3dev/ppu/lib/gcc/powerpc64-ps3-elf/7.2.0/../../../../powerpc64-ps3-elf/lib/libc.a(lib_a-iswspace.o)
 .text.iswspace
                0x000000000001af58       0x3c /usr/local/ps3dev/ppu/lib/gcc/powerpc64-ps3-elf/7.2.0/../../../../powerpc64-ps3-elf/lib/libc.a(lib_a-iswspace.o)
                0x000000000001af58                .iswspace
 .text          0x000000000001af94        0x0 /usr/local/ps3dev/ppu/lib/gcc/powerpc64-ps3-elf/7.2.0/../../../../powerpc64-ps3-elf/lib/libc.a(lib_a-locale.o)
 *fill*         0x000000000001af94        0x4 60000000
 .text._setlocale_r
                0x000000000001af98       0xb4 /usr/local/ps3dev/ppu/lib/gcc/powerpc64-ps3-elf/7.2.0/../../../../powerpc64-ps3-elf/lib/libc.a(lib_a-locale.o)
                0x000000000001af98                ._setlocale_r
 *fill*         0x000000000001b04c        0x4 60000000
 .text.__locale_charset
                0x000000000001b050       0x14 /usr/local/ps3dev/ppu/lib/gcc/powerpc64-ps3-elf/7.2.0/../../../../powerpc64-ps3-elf/lib/libc.a(lib_a-locale.o)
                0x000000000001b050                .__locale_charset
 *fill*         0x000000000001b064        0x4 60000000
 .text.__locale_mb_cur_max
                0x000000000001b068       0x1c /usr/local/ps3dev/ppu/lib/gcc/powerpc64-ps3-elf/7.2.0/../../../../powerpc64-ps3-elf/lib/libc.a(lib_a-locale.o)
                0x000000000001b068                .__locale_mb_cur_max
 *fill*         0x000000000001b084        0x4 60000000
 .text.__locale_msgcharset
                0x000000000001b088       0x14 /usr/local/ps3dev/ppu/lib/gcc/powerpc64-ps3-elf/7.2.0/../../../../powerpc64-ps3-elf/lib/libc.a(lib_a-locale.o)
                0x000000000001b088                .__locale_msgcharset
 *fill*         0x000000000001b09c        0x4 60000000
 .text.__locale_cjk_lang
                0x000000000001b0a0       0x14 /usr/local/ps3dev/ppu/lib/gcc/powerpc64-ps3-elf/7.2.0/../../../../powerpc64-ps3-elf/lib/libc.a(lib_a-locale.o)
                0x000000000001b0a0                .__locale_cjk_lang
 *fill*         0x000000000001b0b4        0x4 60000000
 .text._localeconv_r
                0x000000000001b0b8       0x14 /usr/local/ps3dev/ppu/lib/gcc/powerpc64-ps3-elf/7.2.0/../../../../powerpc64-ps3-elf/lib/libc.a(lib_a-locale.o)
                0x000000000001b0b8                ._localeconv_r
 *fill*         0x000000000001b0cc        0x4 60000000
 .text.setlocale
                0x000000000001b0d0       0x50 /usr/local/ps3dev/ppu/lib/gcc/powerpc64-ps3-elf/7.2.0/../../../../powerpc64-ps3-elf/lib/libc.a(lib_a-locale.o)
                0x000000000001b0d0                .setlocale
 .text.localeconv
                0x000000000001b120       0x34 /usr/local/ps3dev/ppu/lib/gcc/powerpc64-ps3-elf/7.2.0/../../../../powerpc64-ps3-elf/lib/libc.a(lib_a-locale.o)
                0x000000000001b120                .localeconv
 .text          0x000000000001b154        0x0 /usr/local/ps3dev/ppu/lib/gcc/powerpc64-ps3-elf/7.2.0/../../../../powerpc64-ps3-elf/lib/libc.a(lib_a-lock_recursive.o)
 *fill*         0x000000000001b154        0x4 60000000
 .text.__libc_lock_init_recursive
                0x000000000001b158       0x34 /usr/local/ps3dev/ppu/lib/gcc/powerpc64-ps3-elf/7.2.0/../../../../powerpc64-ps3-elf/lib/libc.a(lib_a-lock_recursive.o)
                0x000000000001b158                .__libc_lock_init_recursive
 *fill*         0x000000000001b18c        0x4 60000000
 .text.__libc_lock_close_recursive
                0x000000000001b190       0x30 /usr/local/ps3dev/ppu/lib/gcc/powerpc64-ps3-elf/7.2.0/../../../../powerpc64-ps3-elf/lib/libc.a(lib_a-lock_recursive.o)
                0x000000000001b190                .__libc_lock_close_recursive
 .text.__libc_lock_acquire_recursive
                0x000000000001b1c0       0x58 /usr/local/ps3dev/ppu/lib/gcc/powerpc64-ps3-elf/7.2.0/../../../../powerpc64-ps3-elf/lib/libc.a(lib_a-lock_recursive.o)
                0x000000000001b1c0                .__libc_lock_acquire_recursive
 .text.__libc_lock_try_acquire_recursive
                0x000000000001b218       0x54 /usr/local/ps3dev/ppu/lib/gcc/powerpc64-ps3-elf/7.2.0/../../../../powerpc64-ps3-elf/lib/libc.a(lib_a-lock_recursive.o)
                0x000000000001b218                .__libc_lock_try_acquire_recursive
 *fill*         0x000000000001b26c        0x4 60000000
 .text.__libc_lock_release_recursive
                0x000000000001b270       0x54 /usr/local/ps3dev/ppu/lib/gcc/powerpc64-ps3-elf/7.2.0/../../../../powerpc64-ps3-elf/lib/libc.a(lib_a-lock_recursive.o)
                0x000000000001b270                .__libc_lock_release_recursive
 .text          0x000000000001b2c4        0x0 /usr/local/ps3dev/ppu/lib/gcc/powerpc64-ps3-elf/7.2.0/../../../../powerpc64-ps3-elf/lib/libc.a(lib_a-mbrtowc.o)
 *fill*         0x000000000001b2c4        0x4 60000000
 .text._mbrtowc_r
                0x000000000001b2c8      0x128 /usr/local/ps3dev/ppu/lib/gcc/powerpc64-ps3-elf/7.2.0/../../../../powerpc64-ps3-elf/lib/libc.a(lib_a-mbrtowc.o)
                0x000000000001b2c8                ._mbrtowc_r
 .text.mbrtowc  0x000000000001b3f0      0x164 /usr/local/ps3dev/ppu/lib/gcc/powerpc64-ps3-elf/7.2.0/../../../../powerpc64-ps3-elf/lib/libc.a(lib_a-mbrtowc.o)
                0x000000000001b3f0                .mbrtowc
 .text          0x000000000001b554        0x0 /usr/local/ps3dev/ppu/lib/gcc/powerpc64-ps3-elf/7.2.0/../../../../powerpc64-ps3-elf/lib/libc.a(lib_a-mbtowc_r.o)
 *fill*         0x000000000001b554        0x4 60000000
 .text.__ascii_mbtowc
                0x000000000001b558       0x64 /usr/local/ps3dev/ppu/lib/gcc/powerpc64-ps3-elf/7.2.0/../../../../powerpc64-ps3-elf/lib/libc.a(lib_a-mbtowc_r.o)
                0x000000000001b558                .__ascii_mbtowc
 *fill*         0x000000000001b5bc        0x4 60000000
 .text._mbtowc_r
                0x000000000001b5c0       0x98 /usr/local/ps3dev/ppu/lib/gcc/powerpc64-ps3-elf/7.2.0/../../../../powerpc64-ps3-elf/lib/libc.a(lib_a-mbtowc_r.o)
                0x000000000001b5c0                ._mbtowc_r
 .text          0x000000000001b658        0x0 /usr/local/ps3dev/ppu/lib/gcc/powerpc64-ps3-elf/7.2.0/../../../../powerpc64-ps3-elf/lib/libc.a(lib_a-s_fpclassify.o)
 .text.__fpclassifyd
                0x000000000001b658       0xb8 /usr/local/ps3dev/ppu/lib/gcc/powerpc64-ps3-elf/7.2.0/../../../../powerpc64-ps3-elf/lib/libc.a(lib_a-s_fpclassify.o)
                0x000000000001b658                .__fpclassifyd
 .text          0x000000000001b710        0x0 /usr/local/ps3dev/ppu/lib/gcc/powerpc64-ps3-elf/7.2.0/../../../../powerpc64-ps3-elf/lib/libc.a(lib_a-sccl.o)
 .text.__sccl   0x000000000001b710      0x120 /usr/local/ps3dev/ppu/lib/gcc/powerpc64-ps3-elf/7.2.0/../../../../powerpc64-ps3-elf/lib/libc.a(lib_a-sccl.o)
                0x000000000001b710                .__sccl
 .text          0x000000000001b830        0x0 /usr/local/ps3dev/ppu/lib/gcc/powerpc64-ps3-elf/7.2.0/../../../../powerpc64-ps3-elf/lib/libc.a(lib_a-sf_nan.o)
 .text.nanf     0x000000000001b830       0x18 /usr/local/ps3dev/ppu/lib/gcc/powerpc64-ps3-elf/7.2.0/../../../../powerpc64-ps3-elf/lib/libc.a(lib_a-sf_nan.o)
                0x000000000001b830                .nanf
 .text          0x000000000001b848        0x0 /usr/local/ps3dev/ppu/lib/gcc/powerpc64-ps3-elf/7.2.0/../../../../powerpc64-ps3-elf/lib/libc.a(lib_a-sprintf.o)
 .text._sprintf_r
                0x000000000001b848       0x84 /usr/local/ps3dev/ppu/lib/gcc/powerpc64-ps3-elf/7.2.0/../../../../powerpc64-ps3-elf/lib/libc.a(lib_a-sprintf.o)
                0x000000000001b848                ._sprintf_r
 *fill*         0x000000000001b8cc        0x4 60000000
 .text.sprintf  0x000000000001b8d0       0xa0 /usr/local/ps3dev/ppu/lib/gcc/powerpc64-ps3-elf/7.2.0/../../../../powerpc64-ps3-elf/lib/libc.a(lib_a-sprintf.o)
                0x000000000001b8d0                .sprintf
 .text          0x000000000001b970        0x0 /usr/local/ps3dev/ppu/lib/gcc/powerpc64-ps3-elf/7.2.0/../../../../powerpc64-ps3-elf/lib/libc.a(lib_a-strcmp.o)
 .text.strcmp   0x000000000001b970       0xf4 /usr/local/ps3dev/ppu/lib/gcc/powerpc64-ps3-elf/7.2.0/../../../../powerpc64-ps3-elf/lib/libc.a(lib_a-strcmp.o)
                0x000000000001b970                .strcmp
 .text          0x000000000001ba64        0x0 /usr/local/ps3dev/ppu/lib/gcc/powerpc64-ps3-elf/7.2.0/../../../../powerpc64-ps3-elf/lib/libc.a(lib_a-strtod.o)
 *fill*         0x000000000001ba64        0x4 60000000
 .text._strtod_r
                0x000000000001ba68     0x1630 /usr/local/ps3dev/ppu/lib/gcc/powerpc64-ps3-elf/7.2.0/../../../../powerpc64-ps3-elf/lib/libc.a(lib_a-strtod.o)
                0x000000000001ba68                ._strtod_r
 .text.strtod   0x000000000001d098       0x50 /usr/local/ps3dev/ppu/lib/gcc/powerpc64-ps3-elf/7.2.0/../../../../powerpc64-ps3-elf/lib/libc.a(lib_a-strtod.o)
                0x000000000001d098                .strtod
 .text.strtof   0x000000000001d0e8       0x98 /usr/local/ps3dev/ppu/lib/gcc/powerpc64-ps3-elf/7.2.0/../../../../powerpc64-ps3-elf/lib/libc.a(lib_a-strtod.o)
                0x000000000001d0e8                .strtof
 .text          0x000000000001d180        0x0 /usr/local/ps3dev/ppu/lib/gcc/powerpc64-ps3-elf/7.2.0/../../../../powerpc64-ps3-elf/lib/libc.a(lib_a-strtol.o)
 .text._strtol_r
                0x000000000001d180      0x264 /usr/local/ps3dev/ppu/lib/gcc/powerpc64-ps3-elf/7.2.0/../../../../powerpc64-ps3-elf/lib/libc.a(lib_a-strtol.o)
                0x000000000001d180                ._strtol_r
 *fill*         0x000000000001d3e4        0x4 60000000
 .text.strtol   0x000000000001d3e8       0x60 /usr/local/ps3dev/ppu/lib/gcc/powerpc64-ps3-elf/7.2.0/../../../../powerpc64-ps3-elf/lib/libc.a(lib_a-strtol.o)
                0x000000000001d3e8                .strtol
 .text          0x000000000001d448        0x0 /usr/local/ps3dev/ppu/lib/gcc/powerpc64-ps3-elf/7.2.0/../../../../powerpc64-ps3-elf/lib/libc.a(lib_a-strtoll_r.o)
 .text._strtoll_r
                0x000000000001d448      0x264 /usr/local/ps3dev/ppu/lib/gcc/powerpc64-ps3-elf/7.2.0/../../../../powerpc64-ps3-elf/lib/libc.a(lib_a-strtoll_r.o)
                0x000000000001d448                ._strtoll_r
 .text          0x000000000001d6ac        0x0 /usr/local/ps3dev/ppu/lib/gcc/powerpc64-ps3-elf/7.2.0/../../../../powerpc64-ps3-elf/lib/libc.a(lib_a-strtoul.o)
 *fill*         0x000000000001d6ac        0x4 60000000
 .text._strtoul_r
                0x000000000001d6b0      0x268 /usr/local/ps3dev/ppu/lib/gcc/powerpc64-ps3-elf/7.2.0/../../../../powerpc64-ps3-elf/lib/libc.a(lib_a-strtoul.o)
                0x000000000001d6b0                ._strtoul_r
 .text.strtoul  0x000000000001d918       0x60 /usr/local/ps3dev/ppu/lib/gcc/powerpc64-ps3-elf/7.2.0/../../../../powerpc64-ps3-elf/lib/libc.a(lib_a-strtoul.o)
                0x000000000001d918                .strtoul
 .text          0x000000000001d978        0x0 /usr/local/ps3dev/ppu/lib/gcc/powerpc64-ps3-elf/7.2.0/../../../../powerpc64-ps3-elf/lib/libc.a(lib_a-strtoull_r.o)
 .text._strtoull_r
                0x000000000001d978      0x268 /usr/local/ps3dev/ppu/lib/gcc/powerpc64-ps3-elf/7.2.0/../../../../powerpc64-ps3-elf/lib/libc.a(lib_a-strtoull_r.o)
                0x000000000001d978                ._strtoull_r
 .text          0x000000000001dbe0        0x0 /usr/local/ps3dev/ppu/lib/gcc/powerpc64-ps3-elf/7.2.0/../../../../powerpc64-ps3-elf/lib/libc.a(lib_a-svfiscanf.o)
 .text._sungetc_r
                0x000000000001dbe0      0x154 /usr/local/ps3dev/ppu/lib/gcc/powerpc64-ps3-elf/7.2.0/../../../../powerpc64-ps3-elf/lib/libc.a(lib_a-svfiscanf.o)
                0x000000000001dbe0                ._sungetc_r
 *fill*         0x000000000001dd34        0x4 60000000
 .text.__ssrefill_r
                0x000000000001dd38       0xa0 /usr/local/ps3dev/ppu/lib/gcc/powerpc64-ps3-elf/7.2.0/../../../../powerpc64-ps3-elf/lib/libc.a(lib_a-svfiscanf.o)
                0x000000000001dd38                .__ssrefill_r
 .text._sfread_r
                0x000000000001ddd8      0x130 /usr/local/ps3dev/ppu/lib/gcc/powerpc64-ps3-elf/7.2.0/../../../../powerpc64-ps3-elf/lib/libc.a(lib_a-svfiscanf.o)
                0x000000000001ddd8                ._sfread_r
 .text.__ssvfiscanf_r
                0x000000000001df08     0x118c /usr/local/ps3dev/ppu/lib/gcc/powerpc64-ps3-elf/7.2.0/../../../../powerpc64-ps3-elf/lib/libc.a(lib_a-svfiscanf.o)
                0x000000000001df08                .__ssvfiscanf_r
 .text          0x000000000001f094        0x0 /usr/local/ps3dev/ppu/lib/gcc/powerpc64-ps3-elf/7.2.0/../../../../powerpc64-ps3-elf/lib/libc.a(lib_a-svfprintf.o)
 *fill*         0x000000000001f094        0x4 60000000
 .text._svfprintf_r
                0x000000000001f098     0x21c4 /usr/local/ps3dev/ppu/lib/gcc/powerpc64-ps3-elf/7.2.0/../../../../powerpc64-ps3-elf/lib/libc.a(lib_a-svfprintf.o)
                0x000000000001f098                ._svfprintf_r
 .text          0x000000000002125c        0x0 /usr/local/ps3dev/ppu/lib/gcc/powerpc64-ps3-elf/7.2.0/../../../../powerpc64-ps3-elf/lib/libc.a(lib_a-ungetc.o)
 *fill*         0x000000000002125c        0x4 60000000
 .text.__submore
                0x0000000000021260      0x128 /usr/local/ps3dev/ppu/lib/gcc/powerpc64-ps3-elf/7.2.0/../../../../powerpc64-ps3-elf/lib/libc.a(lib_a-ungetc.o)
                0x0000000000021260                .__submore
 .text._ungetc_r
                0x0000000000021388      0x2a8 /usr/local/ps3dev/ppu/lib/gcc/powerpc64-ps3-elf/7.2.0/../../../../powerpc64-ps3-elf/lib/libc.a(lib_a-ungetc.o)
                0x0000000000021388                ._ungetc_r
 .text.ungetc   0x0000000000021630       0x50 /usr/local/ps3dev/ppu/lib/gcc/powerpc64-ps3-elf/7.2.0/../../../../powerpc64-ps3-elf/lib/libc.a(lib_a-ungetc.o)
                0x0000000000021630                .ungetc
 .text          0x0000000000021680        0x0 /usr/local/ps3dev/ppu/lib/gcc/powerpc64-ps3-elf/7.2.0/../../../../powerpc64-ps3-elf/lib/libc.a(lib_a-__atexit.o)
 .text.__register_exitproc
                0x0000000000021680      0x184 /usr/local/ps3dev/ppu/lib/gcc/powerpc64-ps3-elf/7.2.0/../../../../powerpc64-ps3-elf/lib/libc.a(lib_a-__atexit.o)
                0x0000000000021680                .__register_exitproc
 .text          0x0000000000021804        0x0 /usr/local/ps3dev/ppu/lib/gcc/powerpc64-ps3-elf/7.2.0/../../../../powerpc64-ps3-elf/lib/libc.a(lib_a-dtoa.o)
 *fill*         0x0000000000021804        0x4 60000000
 .text.quorem   0x0000000000021808      0x26c /usr/local/ps3dev/ppu/lib/gcc/powerpc64-ps3-elf/7.2.0/../../../../powerpc64-ps3-elf/lib/libc.a(lib_a-dtoa.o)
 *fill*         0x0000000000021a74        0x4 60000000
 .text._dtoa_r  0x0000000000021a78     0x1478 /usr/local/ps3dev/ppu/lib/gcc/powerpc64-ps3-elf/7.2.0/../../../../powerpc64-ps3-elf/lib/libc.a(lib_a-dtoa.o)
                0x0000000000021a78                ._dtoa_r
 .text          0x0000000000022ef0        0x0 /usr/local/ps3dev/ppu/lib/gcc/powerpc64-ps3-elf/7.2.0/../../../../powerpc64-ps3-elf/lib/libc.a(lib_a-fflush.o)
 .text.__sflush_r
                0x0000000000022ef0      0x3d0 /usr/local/ps3dev/ppu/lib/gcc/powerpc64-ps3-elf/7.2.0/../../../../powerpc64-ps3-elf/lib/libc.a(lib_a-fflush.o)
                0x0000000000022ef0                .__sflush_r
 .text._fflush_r
                0x00000000000232c0      0x124 /usr/local/ps3dev/ppu/lib/gcc/powerpc64-ps3-elf/7.2.0/../../../../powerpc64-ps3-elf/lib/libc.a(lib_a-fflush.o)
                0x00000000000232c0                ._fflush_r
 *fill*         0x00000000000233e4        0x4 60000000
 .text.fflush   0x00000000000233e8       0x70 /usr/local/ps3dev/ppu/lib/gcc/powerpc64-ps3-elf/7.2.0/../../../../powerpc64-ps3-elf/lib/libc.a(lib_a-fflush.o)
                0x00000000000233e8                .fflush
 .text          0x0000000000023458        0x0 /usr/local/ps3dev/ppu/lib/gcc/powerpc64-ps3-elf/7.2.0/../../../../powerpc64-ps3-elf/lib/libc.a(lib_a-findfp.o)
 .text._cleanup_r
                0x0000000000023458       0x34 /usr/local/ps3dev/ppu/lib/gcc/powerpc64-ps3-elf/7.2.0/../../../../powerpc64-ps3-elf/lib/libc.a(lib_a-findfp.o)
                0x0000000000023458                ._cleanup_r
 *fill*         0x000000000002348c        0x4 60000000
 .text.__fp_lock
                0x0000000000023490       0x50 /usr/local/ps3dev/ppu/lib/gcc/powerpc64-ps3-elf/7.2.0/../../../../powerpc64-ps3-elf/lib/libc.a(lib_a-findfp.o)
 .text.__fp_unlock
                0x00000000000234e0       0x50 /usr/local/ps3dev/ppu/lib/gcc/powerpc64-ps3-elf/7.2.0/../../../../powerpc64-ps3-elf/lib/libc.a(lib_a-findfp.o)
 .text.std.isra.0
                0x0000000000023530       0x9c /usr/local/ps3dev/ppu/lib/gcc/powerpc64-ps3-elf/7.2.0/../../../../powerpc64-ps3-elf/lib/libc.a(lib_a-findfp.o)
 *fill*         0x00000000000235cc        0x4 60000000
 .text.__sfmoreglue
                0x00000000000235d0       0x88 /usr/local/ps3dev/ppu/lib/gcc/powerpc64-ps3-elf/7.2.0/../../../../powerpc64-ps3-elf/lib/libc.a(lib_a-findfp.o)
                0x00000000000235d0                .__sfmoreglue
 .text._cleanup
                0x0000000000023658       0x3c /usr/local/ps3dev/ppu/lib/gcc/powerpc64-ps3-elf/7.2.0/../../../../powerpc64-ps3-elf/lib/libc.a(lib_a-findfp.o)
                0x0000000000023658                ._cleanup
 *fill*         0x0000000000023694        0x4 60000000
 .text.__sinit  0x0000000000023698       0xbc /usr/local/ps3dev/ppu/lib/gcc/powerpc64-ps3-elf/7.2.0/../../../../powerpc64-ps3-elf/lib/libc.a(lib_a-findfp.o)
                0x0000000000023698                .__sinit
 *fill*         0x0000000000023754        0x4 60000000
 .text.__sfp    0x0000000000023758      0x190 /usr/local/ps3dev/ppu/lib/gcc/powerpc64-ps3-elf/7.2.0/../../../../powerpc64-ps3-elf/lib/libc.a(lib_a-findfp.o)
                0x0000000000023758                .__sfp
 .text.__sfp_lock_acquire
                0x00000000000238e8       0x34 /usr/local/ps3dev/ppu/lib/gcc/powerpc64-ps3-elf/7.2.0/../../../../powerpc64-ps3-elf/lib/libc.a(lib_a-findfp.o)
                0x00000000000238e8                .__sfp_lock_acquire
 *fill*         0x000000000002391c        0x4 60000000
 .text.__sfp_lock_release
                0x0000000000023920       0x34 /usr/local/ps3dev/ppu/lib/gcc/powerpc64-ps3-elf/7.2.0/../../../../powerpc64-ps3-elf/lib/libc.a(lib_a-findfp.o)
                0x0000000000023920                .__sfp_lock_release
 *fill*         0x0000000000023954        0x4 60000000
 .text.__sinit_lock_acquire
                0x0000000000023958       0x34 /usr/local/ps3dev/ppu/lib/gcc/powerpc64-ps3-elf/7.2.0/../../../../powerpc64-ps3-elf/lib/libc.a(lib_a-findfp.o)
                0x0000000000023958                .__sinit_lock_acquire
 *fill*         0x000000000002398c        0x4 60000000
 .text.__sinit_lock_release
                0x0000000000023990       0x34 /usr/local/ps3dev/ppu/lib/gcc/powerpc64-ps3-elf/7.2.0/../../../../powerpc64-ps3-elf/lib/libc.a(lib_a-findfp.o)
                0x0000000000023990                .__sinit_lock_release
 *fill*         0x00000000000239c4        0x4 60000000
 .text.__fp_lock_all
                0x00000000000239c8       0x48 /usr/local/ps3dev/ppu/lib/gcc/powerpc64-ps3-elf/7.2.0/../../../../powerpc64-ps3-elf/lib/libc.a(lib_a-findfp.o)
                0x00000000000239c8                .__fp_lock_all
 .text.__fp_unlock_all
                0x0000000000023a10       0x48 /usr/local/ps3dev/ppu/lib/gcc/powerpc64-ps3-elf/7.2.0/../../../../powerpc64-ps3-elf/lib/libc.a(lib_a-findfp.o)
                0x0000000000023a10                .__fp_unlock_all
 .text          0x0000000000023a58        0x0 /usr/local/ps3dev/ppu/lib/gcc/powerpc64-ps3-elf/7.2.0/../../../../powerpc64-ps3-elf/lib/libc.a(lib_a-fwalk.o)
 .text._fwalk   0x0000000000023a58      0x100 /usr/local/ps3dev/ppu/lib/gcc/powerpc64-ps3-elf/7.2.0/../../../../powerpc64-ps3-elf/lib/libc.a(lib_a-fwalk.o)
                0x0000000000023a58                ._fwalk
 .text._fwalk_reent
                0x0000000000023b58      0x110 /usr/local/ps3dev/ppu/lib/gcc/powerpc64-ps3-elf/7.2.0/../../../../powerpc64-ps3-elf/lib/libc.a(lib_a-fwalk.o)
                0x0000000000023b58                ._fwalk_reent
 .text          0x0000000000023c68        0x0 /usr/local/ps3dev/ppu/lib/gcc/powerpc64-ps3-elf/7.2.0/../../../../powerpc64-ps3-elf/lib/libc.a(lib_a-gdtoa-gethex.o)
 .text.rshift   0x0000000000023c68      0x184 /usr/local/ps3dev/ppu/lib/gcc/powerpc64-ps3-elf/7.2.0/../../../../powerpc64-ps3-elf/lib/libc.a(lib_a-gdtoa-gethex.o)
 *fill*         0x0000000000023dec        0x4 60000000
 .text.__hexdig_init
                0x0000000000023df0       0xa0 /usr/local/ps3dev/ppu/lib/gcc/powerpc64-ps3-elf/7.2.0/../../../../powerpc64-ps3-elf/lib/libc.a(lib_a-gdtoa-gethex.o)
                0x0000000000023df0                .__hexdig_init
 .text.__gethex
                0x0000000000023e90      0x950 /usr/local/ps3dev/ppu/lib/gcc/powerpc64-ps3-elf/7.2.0/../../../../powerpc64-ps3-elf/lib/libc.a(lib_a-gdtoa-gethex.o)
                0x0000000000023e90                .__gethex
 .text          0x00000000000247e0        0x0 /usr/local/ps3dev/ppu/lib/gcc/powerpc64-ps3-elf/7.2.0/../../../../powerpc64-ps3-elf/lib/libc.a(lib_a-gdtoa-hexnan.o)
 .text.__hexnan
                0x00000000000247e0      0x384 /usr/local/ps3dev/ppu/lib/gcc/powerpc64-ps3-elf/7.2.0/../../../../powerpc64-ps3-elf/lib/libc.a(lib_a-gdtoa-hexnan.o)
                0x00000000000247e0                .__hexnan
 .text          0x0000000000024b64        0x0 /usr/local/ps3dev/ppu/lib/gcc/powerpc64-ps3-elf/7.2.0/../../../../powerpc64-ps3-elf/lib/libc.a(lib_a-lock_internal.o)
 *fill*         0x0000000000024b64        0x4 60000000
 .text.startup.init_metalock
                0x0000000000024b68       0x48 /usr/local/ps3dev/ppu/lib/gcc/powerpc64-ps3-elf/7.2.0/../../../../powerpc64-ps3-elf/lib/libc.a(lib_a-lock_internal.o)
 .text.__libc_auto_lock_allocate
                0x0000000000024bb0       0x9c /usr/local/ps3dev/ppu/lib/gcc/powerpc64-ps3-elf/7.2.0/../../../../powerpc64-ps3-elf/lib/libc.a(lib_a-lock_internal.o)
                0x0000000000024bb0                .__libc_auto_lock_allocate
 .text          0x0000000000024c4c        0x0 /usr/local/ps3dev/ppu/lib/gcc/powerpc64-ps3-elf/7.2.0/../../../../powerpc64-ps3-elf/lib/libc.a(lib_a-memchr.o)
 *fill*         0x0000000000024c4c        0x4 60000000
 .text.memchr   0x0000000000024c50      0x130 /usr/local/ps3dev/ppu/lib/gcc/powerpc64-ps3-elf/7.2.0/../../../../powerpc64-ps3-elf/lib/libc.a(lib_a-memchr.o)
                0x0000000000024c50                .memchr
 .text          0x0000000000024d80        0x0 /usr/local/ps3dev/ppu/lib/gcc/powerpc64-ps3-elf/7.2.0/../../../../powerpc64-ps3-elf/lib/libc.a(lib_a-memcpy.o)
 .text.memcpy   0x0000000000024d80      0x11c /usr/local/ps3dev/ppu/lib/gcc/powerpc64-ps3-elf/7.2.0/../../../../powerpc64-ps3-elf/lib/libc.a(lib_a-memcpy.o)
                0x0000000000024d80                .memcpy
 .text          0x0000000000024e9c        0x0 /usr/local/ps3dev/ppu/lib/gcc/powerpc64-ps3-elf/7.2.0/../../../../powerpc64-ps3-elf/lib/libc.a(lib_a-mprec.o)
 *fill*         0x0000000000024e9c        0x4 60000000
 .text._Balloc  0x0000000000024ea0       0xfc /usr/local/ps3dev/ppu/lib/gcc/powerpc64-ps3-elf/7.2.0/../../../../powerpc64-ps3-elf/lib/libc.a(lib_a-mprec.o)
                0x0000000000024ea0                ._Balloc
 *fill*         0x0000000000024f9c        0x4 60000000
 .text._Bfree   0x0000000000024fa0       0x34 /usr/local/ps3dev/ppu/lib/gcc/powerpc64-ps3-elf/7.2.0/../../../../powerpc64-ps3-elf/lib/libc.a(lib_a-mprec.o)
                0x0000000000024fa0                ._Bfree
 *fill*         0x0000000000024fd4        0x4 60000000
 .text.__multadd
                0x0000000000024fd8      0x164 /usr/local/ps3dev/ppu/lib/gcc/powerpc64-ps3-elf/7.2.0/../../../../powerpc64-ps3-elf/lib/libc.a(lib_a-mprec.o)
                0x0000000000024fd8                .__multadd
 *fill*         0x000000000002513c        0x4 60000000
 .text.__s2b    0x0000000000025140      0x174 /usr/local/ps3dev/ppu/lib/gcc/powerpc64-ps3-elf/7.2.0/../../../../powerpc64-ps3-elf/lib/libc.a(lib_a-mprec.o)
                0x0000000000025140                .__s2b
 *fill*         0x00000000000252b4        0x4 60000000
 .text.__hi0bits
                0x00000000000252b8       0x9c /usr/local/ps3dev/ppu/lib/gcc/powerpc64-ps3-elf/7.2.0/../../../../powerpc64-ps3-elf/lib/libc.a(lib_a-mprec.o)
                0x00000000000252b8                .__hi0bits
 *fill*         0x0000000000025354        0x4 60000000
 .text.__lo0bits
                0x0000000000025358       0xf4 /usr/local/ps3dev/ppu/lib/gcc/powerpc64-ps3-elf/7.2.0/../../../../powerpc64-ps3-elf/lib/libc.a(lib_a-mprec.o)
                0x0000000000025358                .__lo0bits
 *fill*         0x000000000002544c        0x4 60000000
 .text.__i2b    0x0000000000025450       0x48 /usr/local/ps3dev/ppu/lib/gcc/powerpc64-ps3-elf/7.2.0/../../../../powerpc64-ps3-elf/lib/libc.a(lib_a-mprec.o)
                0x0000000000025450                .__i2b
 .text.__multiply
                0x0000000000025498      0x2a8 /usr/local/ps3dev/ppu/lib/gcc/powerpc64-ps3-elf/7.2.0/../../../../powerpc64-ps3-elf/lib/libc.a(lib_a-mprec.o)
                0x0000000000025498                .__multiply
 .text.__pow5mult
                0x0000000000025740      0x19c /usr/local/ps3dev/ppu/lib/gcc/powerpc64-ps3-elf/7.2.0/../../../../powerpc64-ps3-elf/lib/libc.a(lib_a-mprec.o)
                0x0000000000025740                .__pow5mult
 *fill*         0x00000000000258dc        0x4 60000000
 .text.__lshift
                0x00000000000258e0      0x1c0 /usr/local/ps3dev/ppu/lib/gcc/powerpc64-ps3-elf/7.2.0/../../../../powerpc64-ps3-elf/lib/libc.a(lib_a-mprec.o)
                0x00000000000258e0                .__lshift
 .text.__mcmp   0x0000000000025aa0       0x70 /usr/local/ps3dev/ppu/lib/gcc/powerpc64-ps3-elf/7.2.0/../../../../powerpc64-ps3-elf/lib/libc.a(lib_a-mprec.o)
                0x0000000000025aa0                .__mcmp
 .text.__mdiff  0x0000000000025b10      0x244 /usr/local/ps3dev/ppu/lib/gcc/powerpc64-ps3-elf/7.2.0/../../../../powerpc64-ps3-elf/lib/libc.a(lib_a-mprec.o)
                0x0000000000025b10                .__mdiff
 *fill*         0x0000000000025d54        0x4 60000000
 .text.__ulp    0x0000000000025d58       0x88 /usr/local/ps3dev/ppu/lib/gcc/powerpc64-ps3-elf/7.2.0/../../../../powerpc64-ps3-elf/lib/libc.a(lib_a-mprec.o)
                0x0000000000025d58                .__ulp
 .text.__b2d    0x0000000000025de0      0x1a4 /usr/local/ps3dev/ppu/lib/gcc/powerpc64-ps3-elf/7.2.0/../../../../powerpc64-ps3-elf/lib/libc.a(lib_a-mprec.o)
                0x0000000000025de0                .__b2d
 *fill*         0x0000000000025f84        0x4 60000000
 .text.__d2b    0x0000000000025f88      0x1ac /usr/local/ps3dev/ppu/lib/gcc/powerpc64-ps3-elf/7.2.0/../../../../powerpc64-ps3-elf/lib/libc.a(lib_a-mprec.o)
                0x0000000000025f88                .__d2b
 *fill*         0x0000000000026134        0x4 60000000
 .text.__ratio  0x0000000000026138       0xe8 /usr/local/ps3dev/ppu/lib/gcc/powerpc64-ps3-elf/7.2.0/../../../../powerpc64-ps3-elf/lib/libc.a(lib_a-mprec.o)
                0x0000000000026138                .__ratio
 .text._mprec_log10
                0x0000000000026220       0x54 /usr/local/ps3dev/ppu/lib/gcc/powerpc64-ps3-elf/7.2.0/../../../../powerpc64-ps3-elf/lib/libc.a(lib_a-mprec.o)
                0x0000000000026220                ._mprec_log10
 *fill*         0x0000000000026274        0x4 60000000
 .text.__copybits
                0x0000000000026278       0xa0 /usr/local/ps3dev/ppu/lib/gcc/powerpc64-ps3-elf/7.2.0/../../../../powerpc64-ps3-elf/lib/libc.a(lib_a-mprec.o)
                0x0000000000026278                .__copybits
 .text.__any_on
                0x0000000000026318       0xac /usr/local/ps3dev/ppu/lib/gcc/powerpc64-ps3-elf/7.2.0/../../../../powerpc64-ps3-elf/lib/libc.a(lib_a-mprec.o)
                0x0000000000026318                .__any_on
 .text          0x00000000000263c4        0x0 /usr/local/ps3dev/ppu/lib/gcc/powerpc64-ps3-elf/7.2.0/../../../../powerpc64-ps3-elf/lib/libc.a(lib_a-reallocr.o)
 *fill*         0x00000000000263c4        0x4 60000000
 .text._realloc_r
                0x00000000000263c8      0x6c4 /usr/local/ps3dev/ppu/lib/gcc/powerpc64-ps3-elf/7.2.0/../../../../powerpc64-ps3-elf/lib/libc.a(lib_a-reallocr.o)
                0x00000000000263c8                ._realloc_r
 .text          0x0000000000026a8c        0x0 /usr/local/ps3dev/ppu/lib/gcc/powerpc64-ps3-elf/7.2.0/../../../../powerpc64-ps3-elf/lib/libc.a(lib_a-strncmp.o)
 *fill*         0x0000000000026a8c        0x4 60000000
 .text.strncmp  0x0000000000026a90      0x12c /usr/local/ps3dev/ppu/lib/gcc/powerpc64-ps3-elf/7.2.0/../../../../powerpc64-ps3-elf/lib/libc.a(lib_a-strncmp.o)
                0x0000000000026a90                .strncmp
 .text          0x0000000000026bbc        0x0 /usr/local/ps3dev/ppu/lib/gcc/powerpc64-ps3-elf/7.2.0/../../../../powerpc64-ps3-elf/lib/libc.a(lib_a-svfiprintf.o)
 *fill*         0x0000000000026bbc        0x4 60000000
 .text.__ssprint_r
                0x0000000000026bc0      0x2b4 /usr/local/ps3dev/ppu/lib/gcc/powerpc64-ps3-elf/7.2.0/../../../../powerpc64-ps3-elf/lib/libc.a(lib_a-svfiprintf.o)
                0x0000000000026bc0                .__ssprint_r
 *fill*         0x0000000000026e74        0x4 60000000
 .text._svfiprintf_r
                0x0000000000026e78     0x1148 /usr/local/ps3dev/ppu/lib/gcc/powerpc64-ps3-elf/7.2.0/../../../../powerpc64-ps3-elf/lib/libc.a(lib_a-svfiprintf.o)
                0x0000000000026e78                ._svfiprintf_r
 .text          0x0000000000027fc0        0x0 /usr/local/ps3dev/ppu/lib/gcc/powerpc64-ps3-elf/7.2.0/../../../../powerpc64-ps3-elf/lib/libc.a(lib_a-abort.o)
 .text.abort    0x0000000000027fc0       0x30 /usr/local/ps3dev/ppu/lib/gcc/powerpc64-ps3-elf/7.2.0/../../../../powerpc64-ps3-elf/lib/libc.a(lib_a-abort.o)
                0x0000000000027fc0                .abort
 .text          0x0000000000027ff0        0x0 /usr/local/ps3dev/ppu/lib/gcc/powerpc64-ps3-elf/7.2.0/../../../../powerpc64-ps3-elf/lib/libc.a(lib_a-fclose.o)
 .text._fclose_r
                0x0000000000027ff0      0x1e8 /usr/local/ps3dev/ppu/lib/gcc/powerpc64-ps3-elf/7.2.0/../../../../powerpc64-ps3-elf/lib/libc.a(lib_a-fclose.o)
                0x0000000000027ff0                ._fclose_r
 .text.fclose   0x00000000000281d8       0x40 /usr/local/ps3dev/ppu/lib/gcc/powerpc64-ps3-elf/7.2.0/../../../../powerpc64-ps3-elf/lib/libc.a(lib_a-fclose.o)
                0x00000000000281d8                .fclose
 .text          0x0000000000028218        0x0 /usr/local/ps3dev/ppu/lib/gcc/powerpc64-ps3-elf/7.2.0/../../../../powerpc64-ps3-elf/lib/libc.a(lib_a-memmove.o)
 .text.memmove  0x0000000000028218      0x154 /usr/local/ps3dev/ppu/lib/gcc/powerpc64-ps3-elf/7.2.0/../../../../powerpc64-ps3-elf/lib/libc.a(lib_a-memmove.o)
                0x0000000000028218                .memmove
 .text          0x000000000002836c        0x0 /usr/local/ps3dev/ppu/lib/gcc/powerpc64-ps3-elf/7.2.0/../../../../powerpc64-ps3-elf/lib/libc.a(lib_a-signal.o)
 *fill*         0x000000000002836c        0x4 60000000
 .text._init_signal_r.part.0
                0x0000000000028370       0x74 /usr/local/ps3dev/ppu/lib/gcc/powerpc64-ps3-elf/7.2.0/../../../../powerpc64-ps3-elf/lib/libc.a(lib_a-signal.o)
 *fill*         0x00000000000283e4        0x4 60000000
 .text._init_signal_r
                0x00000000000283e8       0x28 /usr/local/ps3dev/ppu/lib/gcc/powerpc64-ps3-elf/7.2.0/../../../../powerpc64-ps3-elf/lib/libc.a(lib_a-signal.o)
                0x00000000000283e8                ._init_signal_r
 .text._signal_r
                0x0000000000028410       0x98 /usr/local/ps3dev/ppu/lib/gcc/powerpc64-ps3-elf/7.2.0/../../../../powerpc64-ps3-elf/lib/libc.a(lib_a-signal.o)
                0x0000000000028410                ._signal_r
 .text._raise_r
                0x00000000000284a8      0x13c /usr/local/ps3dev/ppu/lib/gcc/powerpc64-ps3-elf/7.2.0/../../../../powerpc64-ps3-elf/lib/libc.a(lib_a-signal.o)
                0x00000000000284a8                ._raise_r
 *fill*         0x00000000000285e4        0x4 60000000
 .text.__sigtramp_r
                0x00000000000285e8       0xfc /usr/local/ps3dev/ppu/lib/gcc/powerpc64-ps3-elf/7.2.0/../../../../powerpc64-ps3-elf/lib/libc.a(lib_a-signal.o)
                0x00000000000285e8                .__sigtramp_r
 *fill*         0x00000000000286e4        0x4 60000000
 .text.raise    0x00000000000286e8       0x40 /usr/local/ps3dev/ppu/lib/gcc/powerpc64-ps3-elf/7.2.0/../../../../powerpc64-ps3-elf/lib/libc.a(lib_a-signal.o)
                0x00000000000286e8                .raise
 .text.signal   0x0000000000028728       0xbc /usr/local/ps3dev/ppu/lib/gcc/powerpc64-ps3-elf/7.2.0/../../../../powerpc64-ps3-elf/lib/libc.a(lib_a-signal.o)
                0x0000000000028728                .signal
 *fill*         0x00000000000287e4        0x4 60000000
 .text._init_signal
                0x00000000000287e8       0x54 /usr/local/ps3dev/ppu/lib/gcc/powerpc64-ps3-elf/7.2.0/../../../../powerpc64-ps3-elf/lib/libc.a(lib_a-signal.o)
                0x00000000000287e8                ._init_signal
 *fill*         0x000000000002883c        0x4 60000000
 .text.__sigtramp
                0x0000000000028840       0x40 /usr/local/ps3dev/ppu/lib/gcc/powerpc64-ps3-elf/7.2.0/../../../../powerpc64-ps3-elf/lib/libc.a(lib_a-signal.o)
                0x0000000000028840                .__sigtramp
 .text          0x0000000000028880        0x0 /usr/local/ps3dev/ppu/lib/gcc/powerpc64-ps3-elf/7.2.0/../../../../powerpc64-ps3-elf/lib/libsysbase.a(close.o)
 .text._close_r
                0x0000000000028880       0x68 /usr/local/ps3dev/ppu/lib/gcc/powerpc64-ps3-elf/7.2.0/../../../../powerpc64-ps3-elf/lib/libsysbase.a(close.o)
                0x0000000000028880                ._close_r
 .text          0x00000000000288e8        0x0 /usr/local/ps3dev/ppu/lib/gcc/powerpc64-ps3-elf/7.2.0/../../../../powerpc64-ps3-elf/lib/libsysbase.a(sbrk.o)
 .text._sbrk_r  0x00000000000288e8       0x68 /usr/local/ps3dev/ppu/lib/gcc/powerpc64-ps3-elf/7.2.0/../../../../powerpc64-ps3-elf/lib/libsysbase.a(sbrk.o)
                0x00000000000288e8                ._sbrk_r
 .text          0x0000000000028950        0x0 /usr/local/ps3dev/ppu/lib/gcc/powerpc64-ps3-elf/7.2.0/../../../../powerpc64-ps3-elf/lib/libsysbase.a(_exit.o)
 .text._exit    0x0000000000028950       0x4c /usr/local/ps3dev/ppu/lib/gcc/powerpc64-ps3-elf/7.2.0/../../../../powerpc64-ps3-elf/lib/libsysbase.a(_exit.o)
                0x0000000000028950                ._exit
 .text          0x000000000002899c        0x0 /usr/local/ps3dev/ppu/lib/gcc/powerpc64-ps3-elf/7.2.0/../../../../powerpc64-ps3-elf/lib/libsysbase.a(lseek.o)
 *fill*         0x000000000002899c        0x4 60000000
 .text._lseek_r
                0x00000000000289a0       0x68 /usr/local/ps3dev/ppu/lib/gcc/powerpc64-ps3-elf/7.2.0/../../../../powerpc64-ps3-elf/lib/libsysbase.a(lseek.o)
                0x00000000000289a0                ._lseek_r
 .text          0x0000000000028a08        0x0 /usr/local/ps3dev/ppu/lib/gcc/powerpc64-ps3-elf/7.2.0/../../../../powerpc64-ps3-elf/lib/libsysbase.a(read.o)
 .text._read_r  0x0000000000028a08       0x68 /usr/local/ps3dev/ppu/lib/gcc/powerpc64-ps3-elf/7.2.0/../../../../powerpc64-ps3-elf/lib/libsysbase.a(read.o)
                0x0000000000028a08                ._read_r
 .text          0x0000000000028a70        0x0 /usr/local/ps3dev/ppu/lib/gcc/powerpc64-ps3-elf/7.2.0/../../../../powerpc64-ps3-elf/lib/libsysbase.a(write.o)
 .text._write_r
                0x0000000000028a70       0x68 /usr/local/ps3dev/ppu/lib/gcc/powerpc64-ps3-elf/7.2.0/../../../../powerpc64-ps3-elf/lib/libsysbase.a(write.o)
                0x0000000000028a70                ._write_r
 .text          0x0000000000028ad8        0x0 /usr/local/ps3dev/ppu/lib/gcc/powerpc64-ps3-elf/7.2.0/../../../../powerpc64-ps3-elf/lib/libsysbase.a(lock.o)
 .text.sys_lwmutex_create
                0x0000000000028ad8       0x90 /usr/local/ps3dev/ppu/lib/gcc/powerpc64-ps3-elf/7.2.0/../../../../powerpc64-ps3-elf/lib/libsysbase.a(lock.o)
                0x0000000000028ad8                .sys_lwmutex_create
 .text.sys_lwmutex_destroy
                0x0000000000028b68       0x80 /usr/local/ps3dev/ppu/lib/gcc/powerpc64-ps3-elf/7.2.0/../../../../powerpc64-ps3-elf/lib/libsysbase.a(lock.o)
                0x0000000000028b68                .sys_lwmutex_destroy
 .text.sys_lwmutex_lock
                0x0000000000028be8       0x90 /usr/local/ps3dev/ppu/lib/gcc/powerpc64-ps3-elf/7.2.0/../../../../powerpc64-ps3-elf/lib/libsysbase.a(lock.o)
                0x0000000000028be8                .sys_lwmutex_lock
 .text.sys_lwmutex_trylock
                0x0000000000028c78       0x80 /usr/local/ps3dev/ppu/lib/gcc/powerpc64-ps3-elf/7.2.0/../../../../powerpc64-ps3-elf/lib/libsysbase.a(lock.o)
                0x0000000000028c78                .sys_lwmutex_trylock
 .text.sys_lwmutex_unlock
                0x0000000000028cf8       0x80 /usr/local/ps3dev/ppu/lib/gcc/powerpc64-ps3-elf/7.2.0/../../../../powerpc64-ps3-elf/lib/libsysbase.a(lock.o)
                0x0000000000028cf8                .sys_lwmutex_unlock
 .text          0x0000000000028d78        0x0 /usr/local/ps3dev/ppu/lib/gcc/powerpc64-ps3-elf/7.2.0/../../../../powerpc64-ps3-elf/lib/libsysbase.a(getpid.o)
 .text._getpid_r
                0x0000000000028d78       0x68 /usr/local/ps3dev/ppu/lib/gcc/powerpc64-ps3-elf/7.2.0/../../../../powerpc64-ps3-elf/lib/libsysbase.a(getpid.o)
                0x0000000000028d78                ._getpid_r
 .text          0x0000000000028de0        0x0 /usr/local/ps3dev/ppu/lib/gcc/powerpc64-ps3-elf/7.2.0/../../../../powerpc64-ps3-elf/lib/libsysbase.a(kill.o)
 .text._kill_r  0x0000000000028de0       0x1c /usr/local/ps3dev/ppu/lib/gcc/powerpc64-ps3-elf/7.2.0/../../../../powerpc64-ps3-elf/lib/libsysbase.a(kill.o)
                0x0000000000028de0                ._kill_r
 .text          0x0000000000028dfc        0x0 /usr/local/ps3dev/ppu/lib/gcc/powerpc64-ps3-elf/7.2.0/crtend.o
 *fill*         0x0000000000028dfc        0x4 60000000
 .text.__do_global_ctors_aux
                0x0000000000028e00       0x64 /usr/local/ps3dev/ppu/lib/gcc/powerpc64-ps3-elf/7.2.0/crtend.o
 .text          0x0000000000028e64        0x0 /usr/local/ps3dev/ppu/lib/gcc/powerpc64-ps3-elf/7.2.0/../../../../powerpc64-ps3-elf/lib/lv2-crtn.o
 *(.text.*personality*)
 *(.gnu.warning)
 *(.sfpr .glink)
 .sfpr          0x0000000000000000        0x0 linker stubs
 *fill*         0x0000000000028e64        0x0 60000000
 .glink         0x0000000000000000        0x0 linker stubs

.fini           0x0000000000028e64       0x2c
 *(.fini)
 .fini          0x0000000000028e64        0xc /usr/local/ps3dev/ppu/lib/gcc/powerpc64-ps3-elf/7.2.0/../../../../powerpc64-ps3-elf/lib/lv2-crti.o
                0x0000000000028e64                ._fini
 .fini          0x0000000000028e70        0x8 /usr/local/ps3dev/ppu/lib/gcc/powerpc64-ps3-elf/7.2.0/crtbegin.o
 .fini          0x0000000000028e78        0x8 /usr/local/ps3dev/psl1ght/ppu/lib/librt.a(sbrk.o)
 .fini          0x0000000000028e80       0x10 /usr/local/ps3dev/ppu/lib/gcc/powerpc64-ps3-elf/7.2.0/../../../../powerpc64-ps3-elf/lib/lv2-crtn.o

.sceStub.text   0x0000000000028e90     0x53c0
 *(.sceStub.text)
 .sceStub.text  0x0000000000028e90     0x1640 /usr/local/ps3dev/psl1ght/ppu/lib/libgcm_sys.a(sprx.o)
                0x0000000000028e90                __gcmInitBody
                0x0000000000028e90                .gcmInitBody
                0x0000000000028ed0                .gcmSetDisplayBuffer
                0x0000000000028ed0                __gcmSetDisplayBuffer
                0x0000000000028f10                .gcmGetControlRegister
                0x0000000000028f10                __gcmGetControlRegister
                0x0000000000028f50                .gcmAddressToOffset
                0x0000000000028f50                __gcmAddressToOffset
                0x0000000000028f90                __gcmGetConfiguration
                0x0000000000028f90                .gcmGetConfiguration
                0x0000000000028fd0                __gcmGetCurrentField
                0x0000000000029010                __gcmSetFlipMode
                0x0000000000029010                .gcmSetFlipMode
                0x0000000000029050                .gcmGetFlipStatus
                0x0000000000029050                __gcmGetFlipStatus
                0x0000000000029090                __gcmGetLastFlipTime
                0x00000000000290d0                __gcmGetVBlankCount
                0x0000000000029110                .gcmSetWaitFlip
                0x0000000000029110                __gcmSetWaitFlip
                0x0000000000029150                __gcmSetFlipStatus
                0x0000000000029190                __gcmResetFlipStatus
                0x0000000000029190                .gcmResetFlipStatus
                0x00000000000291d0                __gcmSetFlip
                0x00000000000291d0                .gcmSetFlip
                0x0000000000029210                __gcmSetFlipImmediate
                0x0000000000029250                __gcmFunc15
                0x0000000000029290                __gcmFunc3
                0x00000000000292d0                __gcmFunc1
                0x0000000000029310                __gcmFunc2
                0x0000000000029350                __gcmFunc4
                0x0000000000029390                __gcmFunc12
                0x00000000000293d0                __gcmFunc13
                0x0000000000029410                __gcmGetReport
                0x0000000000029450                __gcmSetTile
                0x0000000000029490                __gcmBindTile
                0x00000000000294d0                __gcmUnbindTile
                0x0000000000029510                __gcmSetZcull
                0x0000000000029550                __gcmBindZcull
                0x0000000000029590                __gcmUnbindZcull
                0x00000000000295d0                __gcmGetTimeStamp
                0x0000000000029610                __gcmSetVBlankFrequency
                0x0000000000029650                __gcmSetSecondVFrequency
                0x0000000000029690                __gcmSetDebugOutputLevel
                0x00000000000296d0                __gcmGetLabelAddress
                0x00000000000296d0                .gcmGetLabelAddress
                0x0000000000029710                __gcmSetVBlankHandlerEx
                0x0000000000029750                __gcmSetFlipHandlerEx
                0x0000000000029790                __gcmSetSecondVHandlerEx
                0x00000000000297d0                __gcmSetGraphicsHandlerEx
                0x0000000000029810                __gcmTerminate
                0x0000000000029850                __gcmMapMainMemory
                0x0000000000029890                __gcmMapEaIoAddress
                0x00000000000298d0                __gcmUnmapEaIoAddress
                0x0000000000029910                __gcmUnmapIoAddress
                0x0000000000029950                __gcmIoOffsetToAddress
                0x0000000000029990                __gcmSetDefaultCommandBuffer
                0x00000000000299d0                __gcmSetTileInfo
                0x0000000000029a10                __gcmGetTiledPitchSize
                0x0000000000029a50                __gcmSetInvalidateTile
                0x0000000000029a90                __gcmSetUserCommandEx
                0x0000000000029ad0                __gcmSetUserHandlerEx
                0x0000000000029b10                __gcmSetQueueHandlerEx
                0x0000000000029b50                __gcmSetPrepareFlip
                0x0000000000029b90                __gcmGetOffsetTable
                0x0000000000029bd0                __gcmGetLastSecondVTime
                0x0000000000029c10                __gcmSortRemapEaIoAddress
                0x0000000000029c50                __gcmGetDisplayBufferByFlipIndex
                0x0000000000029c90                __gcmGcmGetDefaultCommandWordSize
                0x0000000000029cd0                __gcmGcmGetDefaultSegmentWordSize
                0x0000000000029d10                __gcmSetDefaultCommandBufferAndSegmentWordSize
                0x0000000000029d50                __gcmGetDisplayInfo
                0x0000000000029d90                __gcmDumpGraphicsError
                0x0000000000029dd0                __gcmFunc38
                0x0000000000029e10                __gcmGetCurrentDisplayBufferId
                0x0000000000029e50                __gcmGetDefaultCommandWordSize
                0x0000000000029e90                __gcmGetDefaultSegmentWordSize
                0x0000000000029ed0                __gcmGetMaxIoMapSize
                0x0000000000029f10                __gcmGetNotifyDataAddress
                0x0000000000029f50                __gcmGetReportDataAddress
                0x0000000000029f90                __gcmGetReportDataAddressLocation
                0x0000000000029fd0                __gcmGetReportDataLocation
                0x000000000002a010                __gcmGetTileInfo
                0x000000000002a050                __gcmGetTimeStampLocation
                0x000000000002a090                __gcmGetZcullInfo
                0x000000000002a0d0                __gcmInitCursor
                0x000000000002a110                __gcmInitDefaultFifoMode
                0x000000000002a150                __gcmInitSystemMode
                0x000000000002a190                __gcmMapEaIoAddressWithFlags
                0x000000000002a1d0                __gcmMapLocalMemory
                0x000000000002a210                __gcmReserveIoMapSize
                0x000000000002a250                __gcmSetCursorDisable
                0x000000000002a290                __gcmSetCursorEnable
                0x000000000002a2d0                __gcmSetCursorImageOffset
                0x000000000002a310                __gcmSetCursorPosition
                0x000000000002a350                __gcmSetDefaultFifoSize
                0x000000000002a390                __gcmSetFlipCommand
                0x000000000002a3d0                __gcmSetFlipCommandWithWaitLabel
                0x000000000002a410                __gcmSysGetLastVBlankTime
                0x000000000002a450                __gcmUnreserveIoMapSize
                0x000000000002a490                __gcmUpdateCursor
 .sceStub.text  0x000000000002a4d0     0x1400 /usr/local/ps3dev/psl1ght/ppu/lib/libsysutil.a(sprx.o)
                0x000000000002a4d0                .videoGetResolution
                0x000000000002a4d0                __videoGetResolution
                0x000000000002a510                .videoConfigure
                0x000000000002a510                __videoConfigure
                0x000000000002a550                .videoGetState
                0x000000000002a550                __videoGetState
                0x000000000002a590                __videoGetDeviceInfo
                0x000000000002a5d0                __videoGetConfiguration
                0x000000000002a610                __videoGetResolutionAvailability
                0x000000000002a650                __videoDebugSetMonitorType
                0x000000000002a690                __videoRegisterCallbackEx
                0x000000000002a6d0                __videoUnregisterCallback
                0x000000000002a710                __videoGetNumberOfDevice
                0x000000000002a750                __videoGetConvertCursorColorInfo
                0x000000000002a790                __msgDialogClose
                0x000000000002a7d0                __msgDialogOpenErrorCodeEx
                0x000000000002a810                __msgDialogOpenEx
                0x000000000002a850                __msgDialogProgressBarInc
                0x000000000002a890                __msgDialogAbort
                0x000000000002a8d0                __msgDialogOpen2Ex
                0x000000000002a910                __msgDialogProgressBarReset
                0x000000000002a950                __msgDialogProgressBarSetMsg
                0x000000000002a990                __oskGetInputText
                0x000000000002a9d0                __oskSetInitialInputDevice
                0x000000000002aa10                __oskGetSize
                0x000000000002aa50                __oskUnloadAsync
                0x000000000002aa90                __oskDisableDimmer
                0x000000000002aad0                __oskSetKeyLayoutOption
                0x000000000002ab10                __oskAbort
                0x000000000002ab50                __oskSetDeviceMask
                0x000000000002ab90                __oskSetSeparateWindowOption
                0x000000000002abd0                __oskAddSupportLanguage
                0x000000000002ac10                __oskLoadAsync
                0x000000000002ac50                __oskSetInitialKeyLayout
                0x000000000002ac90                __oskSetLayoutMode
                0x000000000002acd0                __sysUtilRegisterCallbackEx
                0x000000000002ad10                __sysUtilCheckCallback
                0x000000000002ad50                __sysUtilUnregisterCallback
                0x000000000002ad90                __sysSaveListLoad2Ex
                0x000000000002add0                __sysSaveListSave2Ex
                0x000000000002ae10                __sysSaveListAutoLoadEx
                0x000000000002ae50                __sysSaveListAutoSaveEx
                0x000000000002ae90                __sysSaveFixedLoad2Ex
                0x000000000002aed0                __sysSaveFixedSave2Ex
                0x000000000002af10                __sysSaveAutoLoad2Ex
                0x000000000002af50                __sysSaveAutoSave2Ex
                0x000000000002af90                __sysSaveDelete2
                0x000000000002afd0                __sysGameDataCheck
                0x000000000002b010                __sysGameBootCheck
                0x000000000002b050                __sysGamePatchCheck
                0x000000000002b090                __sysGameCreateGameData
                0x000000000002b0d0                __sysGameGetParamInt
                0x000000000002b110                __sysGameGetParamString
                0x000000000002b150                __sysGameGetSizeKB
                0x000000000002b190                __sysGameSetParamString
                0x000000000002b1d0                __sysGameGetDiscContentInfoUpdatePath
                0x000000000002b210                __sysGameContentPermit
                0x000000000002b250                __sysGameContentErrorDialog
                0x000000000002b290                __sysGameThemeInstall
                0x000000000002b2d0                __sysGameThemeInstallFromBufferEx
                0x000000000002b310                __sysGameGetLocalWebContentPath
                0x000000000002b350                __sysGameDeleteGameData
                0x000000000002b390                __sysGameRegisterDiscChangeCallbackEx
                0x000000000002b3d0                __sysGameUnregisterDiscChangeCallback
                0x000000000002b410                __sysDiscRegisterDiscChangeCallbackEx
                0x000000000002b450                __sysDiscUnregisterDiscChangeCallback
                0x000000000002b490                __sysTrophyInit
                0x000000000002b4d0                __sysTrophyAbortHandle
                0x000000000002b510                __sysTrophyCreateContext
                0x000000000002b550                __sysTrophyCreateHandle
                0x000000000002b590                __sysTrophyDestroyContext
                0x000000000002b5d0                __sysTrophyDestroyHandle
                0x000000000002b610                __sysTrophyGetGameIcon
                0x000000000002b650                __sysTrophyGetGameInfo
                0x000000000002b690                __sysTrophyGetGameProgress
                0x000000000002b6d0                __sysTrophyGetRequiredDiskSpace
                0x000000000002b710                __sysTrophyGetTrophyIcon
                0x000000000002b750                __sysTrophyGetTrophyInfo
                0x000000000002b790                __sysTrophyGetTrophyUnlockState
                0x000000000002b7d0                __sysTrophyRegisterContextEx
                0x000000000002b810                __sysTrophySetSoundLevel
                0x000000000002b850                __sysTrophyTerm
                0x000000000002b890                __sysTrophyUnlockTrophy
 .sceStub.text  0x000000000002b8d0      0xbc0 /usr/local/ps3dev/psl1ght/ppu/lib/libio.a(sprx.o)
                0x000000000002b8d0                __sys_config_start
                0x000000000002b910                __sys_config_stop
                0x000000000002b950                __sys_config_add_service_listener
                0x000000000002b990                __sys_config_remove_service_listener
                0x000000000002b9d0                __sys_config_register_service
                0x000000000002ba10                __sys_config_unregister_service
                0x000000000002ba50                .ioPadInit
                0x000000000002ba50                __ioPadInit
                0x000000000002ba90                __ioPadEnd
                0x000000000002ba90                .ioPadEnd
                0x000000000002bad0                __ioPadClearBuf
                0x000000000002bb10                __ioPadInfoPressMode
                0x000000000002bb50                __ioPadLddRegisterController
                0x000000000002bb90                .ioPadGetInfo
                0x000000000002bb90                __ioPadGetInfo
                0x000000000002bbd0                __ioPadGetRawData
                0x000000000002bc10                __ioPadGetDataExtra
                0x000000000002bc50                __ioPadInfoSensorMode
                0x000000000002bc90                .ioPadGetData
                0x000000000002bc90                __ioPadGetData
                0x000000000002bcd0                __ioPadLddGetPortNo
                0x000000000002bd10                __ioPadLddDataInsert
                0x000000000002bd50                __ioPadSetSensorMode
                0x000000000002bd90                __ioPadGetCapabilityInfo
                0x000000000002bdd0                __ioPadLddUnregisterController
                0x000000000002be10                __ioPadSetActDirect
                0x000000000002be50                __ioPadSetPressMode
                0x000000000002be90                __ioPadPeriphGetInfo
                0x000000000002bed0                __ioPadSetPortSetting
                0x000000000002bf10                __ioPadPeriphGetData
                0x000000000002bf50                __ioPadGetInfo2
                0x000000000002bf90                __ioMouseInit
                0x000000000002bfd0                __ioMouseEnd
                0x000000000002c010                __ioMouseClearBuf
                0x000000000002c050                __ioMouseGetInfo
                0x000000000002c090                __ioMouseGetTabletDataList
                0x000000000002c0d0                __ioMouseSetTabletMode
                0x000000000002c110                __ioMouseGetData
                0x000000000002c150                __ioMouseInfoTabletMode
                0x000000000002c190                __ioMouseGetRawData
                0x000000000002c1d0                __ioMouseGetDataList
                0x000000000002c210                __ioKbInit
                0x000000000002c250                __ioKbEnd
                0x000000000002c290                __ioKbRead
                0x000000000002c2d0                __ioKbSetReadMode
                0x000000000002c310                __ioKbSetCodeType
                0x000000000002c350                __ioKbCnvRawCode
                0x000000000002c390                __ioKbSetLEDStatus
                0x000000000002c3d0                __ioKbGetInfo
                0x000000000002c410                __ioKbGetConfiguration
                0x000000000002c450                __ioKbClearBuf
 .sceStub.text  0x000000000002c490     0x1dc0 /usr/local/ps3dev/psl1ght/ppu/lib/liblv2.a(sprx.o)
                0x000000000002c490                __sysGetSystemTime
                0x000000000002c4d0                __sysGetSystemSwVersion
                0x000000000002c510                __sysGetTemperature
                0x000000000002c550                __sysGetRandomNumber
                0x000000000002c590                __sysGetRtcStatus
                0x000000000002c5d0                __sysBoardStorageRead
                0x000000000002c610                __sysBoardStorageWrite
                0x000000000002c650                __sysProcessIsStack
                0x000000000002c690                .sysProcessExit
                0x000000000002c690                __sysProcessExit
                0x000000000002c6d0                __sysProcessExitspawn
                0x000000000002c710                __sysProcessExitSpawn2Ex
                0x000000000002c750                __sysProcessExitSpawnWithLevel
                0x000000000002c790                __sysProcessAtExitSpawn
                0x000000000002c7d0                __sysProcess_At_ExitSpawn
                0x000000000002c810                __sysPrxRegisterLibrary
                0x000000000002c850                __sysPrxUnregisterLibrary
                0x000000000002c890                __sysPrxStartModule
                0x000000000002c8d0                __sysPrxStopModule
                0x000000000002c910                __sysPrxLoadModule
                0x000000000002c950                __sysPrxLoadModuleByFd
                0x000000000002c990                __sysPrxLoadModuleList
                0x000000000002c9d0                __sysPrxLoadModuleListOnMemcontainer
                0x000000000002ca10                __sysPrxLoadModuleOnMemcontainer
                0x000000000002ca50                __sysPrxLoadModuleOnMemcontainerByFd
                0x000000000002ca90                __sysPrxGetModuleInfo
                0x000000000002cad0                __sysPrxGetModuleList
                0x000000000002cb10                __sysPrxGetModuleId
                0x000000000002cb50                __sysPrxGetModuleIdByAddress
                0x000000000002cb90                __sysPrxGetModuleIdByName
                0x000000000002cbd0                __sysPrxUnloadModule
                0x000000000002cc10                __sysPrxExitSpawnWithLevel
                0x000000000002cc50                __sysThreadCreateEx
                0x000000000002cc90                __sysThreadExit
                0x000000000002ccd0                __sysThreadGetId
                0x000000000002cd10                __sysThreadOnce
                0x000000000002cd50                __sysThreadInitialzeTLS
                0x000000000002cd90                __sysThreadRegisterAtexit
                0x000000000002cdd0                __sysThreadUnregisterAtexit
                0x000000000002ce10                __sysInterruptThreadDisestablish
                0x000000000002ce50                .sysLwMutexCreate
                0x000000000002ce50                __sysLwMutexCreate
                0x000000000002ce90                __sysLwMutexDestroy
                0x000000000002ce90                .sysLwMutexDestroy
                0x000000000002ced0                .sysLwMutexLock
                0x000000000002ced0                __sysLwMutexLock
                0x000000000002cf10                __sysLwMutexTryLock
                0x000000000002cf10                .sysLwMutexTryLock
                0x000000000002cf50                .sysLwMutexUnlock
                0x000000000002cf50                __sysLwMutexUnlock
                0x000000000002cf90                __sysLwCondCreate
                0x000000000002cfd0                __sysLwCondWait
                0x000000000002d010                __sysLwCondSignal
                0x000000000002d050                __sysLwCondSignalTo
                0x000000000002d090                __sysLwCondSignalAll
                0x000000000002d0d0                __sysLwCondDestroy
                0x000000000002d110                .sysSpinlockInitialize
                0x000000000002d110                __sysSpinlockInitialize
                0x000000000002d150                .sysSpinlockLock
                0x000000000002d150                __sysSpinlockLock
                0x000000000002d190                __sysSpinlockTryLock
                0x000000000002d1d0                .sysSpinlockUnlock
                0x000000000002d1d0                __sysSpinlockUnlock
                0x000000000002d210                __sysWatchdogClear
                0x000000000002d250                __sysWatchdogStart
                0x000000000002d290                __sysWatchdogStop
                0x000000000002d2d0                __sysMalloc
                0x000000000002d310                __sysMemalign
                0x000000000002d350                __sysMemchr
                0x000000000002d390                __sysMemcmp
                0x000000000002d3d0                __sysMemcpy
                0x000000000002d410                __sysMemmove
                0x000000000002d450                __sysMemset
                0x000000000002d490                __sysFree
                0x000000000002d4d0                __sysHeapAllocHeapMemory
                0x000000000002d510                __sysHeapCreateHeap
                0x000000000002d550                __sysHeapDeleteHeap
                0x000000000002d590                __sysHeapFree
                0x000000000002d5d0                __sysHeapGetMallInfo
                0x000000000002d610                __sysHeapGetTotalFreeSize
                0x000000000002d650                __sysHeapMalloc
                0x000000000002d690                __sysHeapMemalign
                0x000000000002d6d0                __sysHeapStats
                0x000000000002d710                __sysQsort
                0x000000000002d750                __sysMempoolCreate
                0x000000000002d790                __sysMempoolDestroy
                0x000000000002d7d0                __sysMempoolGetCount
                0x000000000002d810                __sysMempoolAllocateBlock
                0x000000000002d850                __sysMempoolTryAllocateBlock
                0x000000000002d890                __sysMempoolFreeBlock
                0x000000000002d8d0                .sysMMapperFreeMemory
                0x000000000002d8d0                __sysMMapperFreeMemory
                0x000000000002d910                __sysMMapperMapMemory
                0x000000000002d950                __sysMMapperUnmapMemory
                0x000000000002d950                .sysMMapperUnmapMemory
                0x000000000002d990                __sysMMapperAllocateMemory
                0x000000000002d990                .sysMMapperAllocateMemory
                0x000000000002d9d0                __sysMMapperAllocateMemoryFromContainer
                0x000000000002da10                __sysStrlen
                0x000000000002da50                __sysStrcpy
                0x000000000002da90                __sysStrncpy
                0x000000000002dad0                __sysStrcat
                0x000000000002db10                __sysStrncat
                0x000000000002db50                __sysStrchr
                0x000000000002db90                __sysStrrchr
                0x000000000002dbd0                __sysStrcmp
                0x000000000002dc10                __sysStrncmp
                0x000000000002dc50                __sysStrncasecmp
                0x000000000002dc90                __sysToLower
                0x000000000002dcd0                __sysToUpper
                0x000000000002dd10                __sysSpuElfGetSegments
                0x000000000002dd50                __sysSpuElfGetInformation
                0x000000000002dd90                __sysSpuRawLoad
                0x000000000002ddd0                __sysSpuRawImageLoad
                0x000000000002de10                __sysSpuImageClose
                0x000000000002de50                __sysSpuImageImport
                0x000000000002de90                __sysSpuPrintfAttachGroup
                0x000000000002ded0                __sysSpuPrintfAttachThread
                0x000000000002df10                __sysSpuPrintfDetachGroup
                0x000000000002df50                __sysSpuPrintfDetach_Tread
                0x000000000002df90                __sysSpuPrintfFinalize
                0x000000000002dfd0                __sysSpuPrintfInitialize
                0x000000000002e010                __sysConsoleGetc
                0x000000000002e050                __sysConsolePutc
                0x000000000002e090                __sysConsoleWrite
                0x000000000002e0d0                __sysPrintf
                0x000000000002e110                __sysSprintf
                0x000000000002e150                __sysSnprintf
                0x000000000002e190                __sysVprintf
                0x000000000002e1d0                __sysVsprintf
                0x000000000002e210                __sysVsnprintf
 *(SORT(.sceStub.text.*))
                0x000000000002e250                PROVIDE (__etext, .)
                0x000000000002e250                PROVIDE (_etext, .)
                0x000000000002e250                PROVIDE (etext, .)

.eh_frame_hdr   0x000000000002e250        0x0
 *(.eh_frame_hdr)
 .eh_frame_hdr  0x0000000000000000        0x0 /usr/local/ps3dev/ppu/lib/gcc/powerpc64-ps3-elf/7.2.0/../../../../powerpc64-ps3-elf/lib/lv2-crtn.o

.eh_frame       0x000000000002e250        0x4
 *(.eh_frame)
 .eh_frame      0x000000000002e250        0x0 linker stubs
 .eh_frame      0x000000000002e250        0x0 /usr/local/ps3dev/ppu/lib/gcc/powerpc64-ps3-elf/7.2.0/crtbegin.o
 .eh_frame      0x000000000002e250        0x4 /usr/local/ps3dev/ppu/lib/gcc/powerpc64-ps3-elf/7.2.0/crtend.o

.gcc_except_table
 *(.gcc_except_table .gcc_except_table.*)

.rodata.sceResident
                0x000000000002e254       0x3e
 *(.rodata.sceResident)
 .rodata.sceResident
                0x000000000002e254        0xf /usr/local/ps3dev/psl1ght/ppu/lib/libgcm_sys.a(sprx.o)
 *fill*         0x000000000002e263        0x1 00
 .rodata.sceResident
                0x000000000002e264       0x10 /usr/local/ps3dev/psl1ght/ppu/lib/libsysutil.a(sprx.o)
 .rodata.sceResident
                0x000000000002e274        0xb /usr/local/ps3dev/psl1ght/ppu/lib/libio.a(sprx.o)
 *fill*         0x000000000002e27f        0x1 00
 .rodata.sceResident
                0x000000000002e280       0x12 /usr/local/ps3dev/psl1ght/ppu/lib/liblv2.a(sprx.o)

.rodata.sceFNID
                0x000000000002e294      0x53c
 *(.rodata.sceFNID .rodata.sceFNID.*)
 .rodata.sceFNID
                0x000000000002e294      0x164 /usr/local/ps3dev/psl1ght/ppu/lib/libgcm_sys.a(sprx.o)
                0x000000000002e294                gcmInitBody_fnid
                0x000000000002e294                cellGcmSys
                0x000000000002e298                gcmSetDisplayBuffer_fnid
                0x000000000002e29c                gcmGetControlRegister_fnid
                0x000000000002e2a0                gcmAddressToOffset_fnid
                0x000000000002e2a4                gcmGetConfiguration_fnid
                0x000000000002e2a8                gcmGetCurrentField_fnid
                0x000000000002e2ac                gcmSetFlipMode_fnid
                0x000000000002e2b0                gcmGetFlipStatus_fnid
                0x000000000002e2b4                gcmGetLastFlipTime_fnid
                0x000000000002e2b8                gcmGetVBlankCount_fnid
                0x000000000002e2bc                gcmSetWaitFlip_fnid
                0x000000000002e2c0                gcmSetFlipStatus_fnid
                0x000000000002e2c4                gcmResetFlipStatus_fnid
                0x000000000002e2c8                gcmSetFlip_fnid
                0x000000000002e2cc                gcmSetFlipImmediate_fnid
                0x000000000002e2d0                gcmFunc15_fnid
                0x000000000002e2d4                gcmFunc3_fnid
                0x000000000002e2d8                gcmFunc1_fnid
                0x000000000002e2dc                gcmFunc2_fnid
                0x000000000002e2e0                gcmFunc4_fnid
                0x000000000002e2e4                gcmFunc12_fnid
                0x000000000002e2e8                gcmFunc13_fnid
                0x000000000002e2ec                gcmGetReport_fnid
                0x000000000002e2f0                gcmSetTile_fnid
                0x000000000002e2f4                gcmBindTile_fnid
                0x000000000002e2f8                gcmUnbindTile_fnid
                0x000000000002e2fc                gcmSetZcull_fnid
                0x000000000002e300                gcmBindZcull_fnid
                0x000000000002e304                gcmUnbindZcull_fnid
                0x000000000002e308                gcmGetTimeStamp_fnid
                0x000000000002e30c                gcmSetVBlankFrequency_fnid
                0x000000000002e310                gcmSetSecondVFrequency_fnid
                0x000000000002e314                gcmSetDebugOutputLevel_fnid
                0x000000000002e318                gcmGetLabelAddress_fnid
                0x000000000002e31c                gcmSetVBlankHandlerEx_fnid
                0x000000000002e320                gcmSetFlipHandlerEx_fnid
                0x000000000002e324                gcmSetSecondVHandlerEx_fnid
                0x000000000002e328                gcmSetGraphicsHandlerEx_fnid
                0x000000000002e32c                gcmTerminate_fnid
                0x000000000002e330                gcmMapMainMemory_fnid
                0x000000000002e334                gcmMapEaIoAddress_fnid
                0x000000000002e338                gcmUnmapEaIoAddress_fnid
                0x000000000002e33c                gcmUnmapIoAddress_fnid
                0x000000000002e340                gcmIoOffsetToAddress_fnid
                0x000000000002e344                gcmSetDefaultCommandBuffer_fnid
                0x000000000002e348                gcmSetTileInfo_fnid
                0x000000000002e34c                gcmGetTiledPitchSize_fnid
                0x000000000002e350                gcmSetInvalidateTile_fnid
                0x000000000002e354                gcmSetUserCommandEx_fnid
                0x000000000002e358                gcmSetUserHandlerEx_fnid
                0x000000000002e35c                gcmSetQueueHandlerEx_fnid
                0x000000000002e360                gcmSetPrepareFlip_fnid
                0x000000000002e364                gcmGetOffsetTable_fnid
                0x000000000002e368                gcmGetLastSecondVTime_fnid
                0x000000000002e36c                gcmSortRemapEaIoAddress_fnid
                0x000000000002e370                gcmGetDisplayBufferByFlipIndex_fnid
                0x000000000002e374                gcmGcmGetDefaultCommandWordSize_fnid
                0x000000000002e378                gcmGcmGetDefaultSegmentWordSize_fnid
                0x000000000002e37c                gcmSetDefaultCommandBufferAndSegmentWordSize_fnid
                0x000000000002e380                gcmGetDisplayInfo_fnid
                0x000000000002e384                gcmDumpGraphicsError_fnid
                0x000000000002e388                gcmFunc38_fnid
                0x000000000002e38c                gcmGetCurrentDisplayBufferId_fnid
                0x000000000002e390                gcmGetDefaultCommandWordSize_fnid
                0x000000000002e394                gcmGetDefaultSegmentWordSize_fnid
                0x000000000002e398                gcmGetMaxIoMapSize_fnid
                0x000000000002e39c                gcmGetNotifyDataAddress_fnid
                0x000000000002e3a0                gcmGetReportDataAddress_fnid
                0x000000000002e3a4                gcmGetReportDataAddressLocation_fnid
                0x000000000002e3a8                gcmGetReportDataLocation_fnid
                0x000000000002e3ac                gcmGetTileInfo_fnid
                0x000000000002e3b0                gcmGetTimeStampLocation_fnid
                0x000000000002e3b4                gcmGetZcullInfo_fnid
                0x000000000002e3b8                gcmInitCursor_fnid
                0x000000000002e3bc                gcmInitDefaultFifoMode_fnid
                0x000000000002e3c0                gcmInitSystemMode_fnid
                0x000000000002e3c4                gcmMapEaIoAddressWithFlags_fnid
                0x000000000002e3c8                gcmMapLocalMemory_fnid
                0x000000000002e3cc                gcmReserveIoMapSize_fnid
                0x000000000002e3d0                gcmSetCursorDisable_fnid
                0x000000000002e3d4                gcmSetCursorEnable_fnid
                0x000000000002e3d8                gcmSetCursorImageOffset_fnid
                0x000000000002e3dc                gcmSetCursorPosition_fnid
                0x000000000002e3e0                gcmSetDefaultFifoSize_fnid
                0x000000000002e3e4                gcmSetFlipCommand_fnid
                0x000000000002e3e8                gcmSetFlipCommandWithWaitLabel_fnid
                0x000000000002e3ec                gcmSysGetLastVBlankTime_fnid
                0x000000000002e3f0                gcmUnreserveIoMapSize_fnid
                0x000000000002e3f4                gcmUpdateCursor_fnid
 .rodata.sceFNID
                0x000000000002e3f8      0x140 /usr/local/ps3dev/psl1ght/ppu/lib/libsysutil.a(sprx.o)
                0x000000000002e3f8                cellSysutil
                0x000000000002e3f8                videoGetResolution_fnid
                0x000000000002e3fc                videoConfigure_fnid
                0x000000000002e400                videoGetState_fnid
                0x000000000002e404                videoGetDeviceInfo_fnid
                0x000000000002e408                videoGetConfiguration_fnid
                0x000000000002e40c                videoGetResolutionAvailability_fnid
                0x000000000002e410                videoDebugSetMonitorType_fnid
                0x000000000002e414                videoRegisterCallbackEx_fnid
                0x000000000002e418                videoUnregisterCallback_fnid
                0x000000000002e41c                videoGetNumberOfDevice_fnid
                0x000000000002e420                videoGetConvertCursorColorInfo_fnid
                0x000000000002e424                msgDialogClose_fnid
                0x000000000002e428                msgDialogOpenErrorCodeEx_fnid
                0x000000000002e42c                msgDialogOpenEx_fnid
                0x000000000002e430                msgDialogProgressBarInc_fnid
                0x000000000002e434                msgDialogAbort_fnid
                0x000000000002e438                msgDialogOpen2Ex_fnid
                0x000000000002e43c                msgDialogProgressBarReset_fnid
                0x000000000002e440                msgDialogProgressBarSetMsg_fnid
                0x000000000002e444                oskGetInputText_fnid
                0x000000000002e448                oskSetInitialInputDevice_fnid
                0x000000000002e44c                oskGetSize_fnid
                0x000000000002e450                oskUnloadAsync_fnid
                0x000000000002e454                oskDisableDimmer_fnid
                0x000000000002e458                oskSetKeyLayoutOption_fnid
                0x000000000002e45c                oskAbort_fnid
                0x000000000002e460                oskSetDeviceMask_fnid
                0x000000000002e464                oskSetSeparateWindowOption_fnid
                0x000000000002e468                oskAddSupportLanguage_fnid
                0x000000000002e46c                oskLoadAsync_fnid
                0x000000000002e470                oskSetInitialKeyLayout_fnid
                0x000000000002e474                oskSetLayoutMode_fnid
                0x000000000002e478                sysUtilRegisterCallbackEx_fnid
                0x000000000002e47c                sysUtilCheckCallback_fnid
                0x000000000002e480                sysUtilUnregisterCallback_fnid
                0x000000000002e484                sysSaveListLoad2Ex_fnid
                0x000000000002e488                sysSaveListSave2Ex_fnid
                0x000000000002e48c                sysSaveListAutoLoadEx_fnid
                0x000000000002e490                sysSaveListAutoSaveEx_fnid
                0x000000000002e494                sysSaveFixedLoad2Ex_fnid
                0x000000000002e498                sysSaveFixedSave2Ex_fnid
                0x000000000002e49c                sysSaveAutoLoad2Ex_fnid
                0x000000000002e4a0                sysSaveAutoSave2Ex_fnid
                0x000000000002e4a4                sysSaveDelete2_fnid
                0x000000000002e4a8                sysGameDataCheck_fnid
                0x000000000002e4ac                sysGameBootCheck_fnid
                0x000000000002e4b0                sysGamePatchCheck_fnid
                0x000000000002e4b4                sysGameCreateGameData_fnid
                0x000000000002e4b8                sysGameGetParamInt_fnid
                0x000000000002e4bc                sysGameGetParamString_fnid
                0x000000000002e4c0                sysGameGetSizeKB_fnid
                0x000000000002e4c4                sysGameSetParamString_fnid
                0x000000000002e4c8                sysGameGetDiscContentInfoUpdatePath_fnid
                0x000000000002e4cc                sysGameContentPermit_fnid
                0x000000000002e4d0                sysGameContentErrorDialog_fnid
                0x000000000002e4d4                sysGameThemeInstall_fnid
                0x000000000002e4d8                sysGameThemeInstallFromBufferEx_fnid
                0x000000000002e4dc                sysGameGetLocalWebContentPath_fnid
                0x000000000002e4e0                sysGameDeleteGameData_fnid
                0x000000000002e4e4                sysGameRegisterDiscChangeCallbackEx_fnid
                0x000000000002e4e8                sysGameUnregisterDiscChangeCallback_fnid
                0x000000000002e4ec                sysDiscRegisterDiscChangeCallbackEx_fnid
                0x000000000002e4f0                sysDiscUnregisterDiscChangeCallback_fnid
                0x000000000002e4f4                sysTrophyInit_fnid
                0x000000000002e4f8                sysTrophyAbortHandle_fnid
                0x000000000002e4fc                sysTrophyCreateContext_fnid
                0x000000000002e500                sysTrophyCreateHandle_fnid
                0x000000000002e504                sysTrophyDestroyContext_fnid
                0x000000000002e508                sysTrophyDestroyHandle_fnid
                0x000000000002e50c                sysTrophyGetGameIcon_fnid
                0x000000000002e510                sysTrophyGetGameInfo_fnid
                0x000000000002e514                sysTrophyGetGameProgress_fnid
                0x000000000002e518                sysTrophyGetRequiredDiskSpace_fnid
                0x000000000002e51c                sysTrophyGetTrophyIcon_fnid
                0x000000000002e520                sysTrophyGetTrophyInfo_fnid
                0x000000000002e524                sysTrophyGetTrophyUnlockState_fnid
                0x000000000002e528                sysTrophyRegisterContextEx_fnid
                0x000000000002e52c                sysTrophySetSoundLevel_fnid
                0x000000000002e530                sysTrophyTerm_fnid
                0x000000000002e534                sysTrophyUnlockTrophy_fnid
 .rodata.sceFNID
                0x000000000002e538       0xbc /usr/local/ps3dev/psl1ght/ppu/lib/libio.a(sprx.o)
                0x000000000002e538                sys_io
                0x000000000002e538                sys_config_start_fnid
                0x000000000002e53c                sys_config_stop_fnid
                0x000000000002e540                sys_config_add_service_listener_fnid
                0x000000000002e544                sys_config_remove_service_listener_fnid
                0x000000000002e548                sys_config_register_service_fnid
                0x000000000002e54c                sys_config_unregister_service_fnid
                0x000000000002e550                ioPadInit_fnid
                0x000000000002e554                ioPadEnd_fnid
                0x000000000002e558                ioPadClearBuf_fnid
                0x000000000002e55c                ioPadInfoPressMode_fnid
                0x000000000002e560                ioPadLddRegisterController_fnid
                0x000000000002e564                ioPadGetInfo_fnid
                0x000000000002e568                ioPadGetRawData_fnid
                0x000000000002e56c                ioPadGetDataExtra_fnid
                0x000000000002e570                ioPadInfoSensorMode_fnid
                0x000000000002e574                ioPadGetData_fnid
                0x000000000002e578                ioPadLddGetPortNo_fnid
                0x000000000002e57c                ioPadLddDataInsert_fnid
                0x000000000002e580                ioPadSetSensorMode_fnid
                0x000000000002e584                ioPadGetCapabilityInfo_fnid
                0x000000000002e588                ioPadLddUnregisterController_fnid
                0x000000000002e58c                ioPadSetActDirect_fnid
                0x000000000002e590                ioPadSetPressMode_fnid
                0x000000000002e594                ioPadPeriphGetInfo_fnid
                0x000000000002e598                ioPadSetPortSetting_fnid
                0x000000000002e59c                ioPadPeriphGetData_fnid
                0x000000000002e5a0                ioPadGetInfo2_fnid
                0x000000000002e5a4                ioMouseInit_fnid
                0x000000000002e5a8                ioMouseEnd_fnid
                0x000000000002e5ac                ioMouseClearBuf_fnid
                0x000000000002e5b0                ioMouseGetInfo_fnid
                0x000000000002e5b4                ioMouseGetTabletDataList_fnid
                0x000000000002e5b8                ioMouseSetTabletMode_fnid
                0x000000000002e5bc                ioMouseGetData_fnid
                0x000000000002e5c0                ioMouseInfoTabletMode_fnid
                0x000000000002e5c4                ioMouseGetRawData_fnid
                0x000000000002e5c8                ioMouseGetDataList_fnid
                0x000000000002e5cc                ioKbInit_fnid
                0x000000000002e5d0                ioKbEnd_fnid
                0x000000000002e5d4                ioKbRead_fnid
                0x000000000002e5d8                ioKbSetReadMode_fnid
                0x000000000002e5dc                ioKbSetCodeType_fnid
                0x000000000002e5e0                ioKbCnvRawCode_fnid
                0x000000000002e5e4                ioKbSetLEDStatus_fnid
                0x000000000002e5e8                ioKbGetInfo_fnid
                0x000000000002e5ec                ioKbGetConfiguration_fnid
                0x000000000002e5f0                ioKbClearBuf_fnid
 .rodata.sceFNID
                0x000000000002e5f4      0x1dc /usr/local/ps3dev/psl1ght/ppu/lib/liblv2.a(sprx.o)
                0x000000000002e5f4                sysPrxForUser
                0x000000000002e5f4                sysGetSystemTime_fnid
                0x000000000002e5f8                sysGetSystemSwVersion_fnid
                0x000000000002e5fc                sysGetTemperature_fnid
                0x000000000002e600                sysGetRandomNumber_fnid
                0x000000000002e604                sysGetRtcStatus_fnid
                0x000000000002e608                sysBoardStorageRead_fnid
                0x000000000002e60c                sysBoardStorageWrite_fnid
                0x000000000002e610                sysProcessIsStack_fnid
                0x000000000002e614                sysProcessExit_fnid
                0x000000000002e618                sysProcessExitspawn_fnid
                0x000000000002e61c                sysProcessExitSpawn2Ex_fnid
                0x000000000002e620                sysProcessExitSpawnWithLevel_fnid
                0x000000000002e624                sysProcessAtExitSpawn_fnid
                0x000000000002e628                sysProcess_At_ExitSpawn_fnid
                0x000000000002e62c                sysPrxRegisterLibrary_fnid
                0x000000000002e630                sysPrxUnregisterLibrary_fnid
                0x000000000002e634                sysPrxStartModule_fnid
                0x000000000002e638                sysPrxStopModule_fnid
                0x000000000002e63c                sysPrxLoadModule_fnid
                0x000000000002e640                sysPrxLoadModuleByFd_fnid
                0x000000000002e644                sysPrxLoadModuleList_fnid
                0x000000000002e648                sysPrxLoadModuleListOnMemcontainer_fnid
                0x000000000002e64c                sysPrxLoadModuleOnMemcontainer_fnid
                0x000000000002e650                sysPrxLoadModuleOnMemcontainerByFd_fnid
                0x000000000002e654                sysPrxGetModuleInfo_fnid
                0x000000000002e658                sysPrxGetModuleList_fnid
                0x000000000002e65c                sysPrxGetModuleId_fnid
                0x000000000002e660                sysPrxGetModuleIdByAddress_fnid
                0x000000000002e664                sysPrxGetModuleIdByName_fnid
                0x000000000002e668                sysPrxUnloadModule_fnid
                0x000000000002e66c                sysPrxExitSpawnWithLevel_fnid
                0x000000000002e670                sysThreadCreateEx_fnid
                0x000000000002e674                sysThreadExit_fnid
                0x000000000002e678                sysThreadGetId_fnid
                0x000000000002e67c                sysThreadOnce_fnid
                0x000000000002e680                sysThreadInitialzeTLS_fnid
                0x000000000002e684                sysThreadRegisterAtexit_fnid
                0x000000000002e688                sysThreadUnregisterAtexit_fnid
                0x000000000002e68c                sysInterruptThreadDisestablish_fnid
                0x000000000002e690                sysLwMutexCreate_fnid
                0x000000000002e694                sysLwMutexDestroy_fnid
                0x000000000002e698                sysLwMutexLock_fnid
                0x000000000002e69c                sysLwMutexTryLock_fnid
                0x000000000002e6a0                sysLwMutexUnlock_fnid
                0x000000000002e6a4                sysLwCondCreate_fnid
                0x000000000002e6a8                sysLwCondWait_fnid
                0x000000000002e6ac                sysLwCondSignal_fnid
                0x000000000002e6b0                sysLwCondSignalTo_fnid
                0x000000000002e6b4                sysLwCondSignalAll_fnid
                0x000000000002e6b8                sysLwCondDestroy_fnid
                0x000000000002e6bc                sysSpinlockInitialize_fnid
                0x000000000002e6c0                sysSpinlockLock_fnid
                0x000000000002e6c4                sysSpinlockTryLock_fnid
                0x000000000002e6c8                sysSpinlockUnlock_fnid
                0x000000000002e6cc                sysWatchdogClear_fnid
                0x000000000002e6d0                sysWatchdogStart_fnid
                0x000000000002e6d4                sysWatchdogStop_fnid
                0x000000000002e6d8                sysMalloc_fnid
                0x000000000002e6dc                sysMemalign_fnid
                0x000000000002e6e0                sysMemchr_fnid
                0x000000000002e6e4                sysMemcmp_fnid
                0x000000000002e6e8                sysMemcpy_fnid
                0x000000000002e6ec                sysMemmove_fnid
                0x000000000002e6f0                sysMemset_fnid
                0x000000000002e6f4                sysFree_fnid
                0x000000000002e6f8                sysHeapAllocHeapMemory_fnid
                0x000000000002e6fc                sysHeapCreateHeap_fnid
                0x000000000002e700                sysHeapDeleteHeap_fnid
                0x000000000002e704                sysHeapFree_fnid
                0x000000000002e708                sysHeapGetMallInfo_fnid
                0x000000000002e70c                sysHeapGetTotalFreeSize_fnid
                0x000000000002e710                sysHeapMalloc_fnid
                0x000000000002e714                sysHeapMemalign_fnid
                0x000000000002e718                sysHeapStats_fnid
                0x000000000002e71c                sysQsort_fnid
                0x000000000002e720                sysMempoolCreate_fnid
                0x000000000002e724                sysMempoolDestroy_fnid
                0x000000000002e728                sysMempoolGetCount_fnid
                0x000000000002e72c                sysMempoolAllocateBlock_fnid
                0x000000000002e730                sysMempoolTryAllocateBlock_fnid
                0x000000000002e734                sysMempoolFreeBlock_fnid
                0x000000000002e738                sysMMapperFreeMemory_fnid
                0x000000000002e73c                sysMMapperMapMemory_fnid
                0x000000000002e740                sysMMapperUnmapMemory_fnid
                0x000000000002e744                sysMMapperAllocateMemory_fnid
                0x000000000002e748                sysMMapperAllocateMemoryFromContainer_fnid
                0x000000000002e74c                sysStrlen_fnid
                0x000000000002e750                sysStrcpy_fnid
                0x000000000002e754                sysStrncpy_fnid
                0x000000000002e758                sysStrcat_fnid
                0x000000000002e75c                sysStrncat_fnid
                0x000000000002e760                sysStrchr_fnid
                0x000000000002e764                sysStrrchr_fnid
                0x000000000002e768                sysStrcmp_fnid
                0x000000000002e76c                sysStrncmp_fnid
                0x000000000002e770                sysStrncasecmp_fnid
                0x000000000002e774                sysToLower_fnid
                0x000000000002e778                sysToUpper_fnid
                0x000000000002e77c                sysSpuElfGetSegments_fnid
                0x000000000002e780                sysSpuElfGetInformation_fnid
                0x000000000002e784                sysSpuRawLoad_fnid
                0x000000000002e788                sysSpuRawImageLoad_fnid
                0x000000000002e78c                sysSpuImageClose_fnid
                0x000000000002e790                sysSpuImageImport_fnid
                0x000000000002e794                sysSpuPrintfAttachGroup_fnid
                0x000000000002e798                sysSpuPrintfAttachThread_fnid
                0x000000000002e79c                sysSpuPrintfDetachGroup_fnid
                0x000000000002e7a0                sysSpuPrintfDetach_Tread_fnid
                0x000000000002e7a4                sysSpuPrintfFinalize_fnid
                0x000000000002e7a8                sysSpuPrintfInitialize_fnid
                0x000000000002e7ac                sysConsoleGetc_fnid
                0x000000000002e7b0                sysConsolePutc_fnid
                0x000000000002e7b4                sysConsoleWrite_fnid
                0x000000000002e7b8                sysPrintf_fnid
                0x000000000002e7bc                sysSprintf_fnid
                0x000000000002e7c0                sysSnprintf_fnid
                0x000000000002e7c4                sysVprintf_fnid
                0x000000000002e7c8                sysVsprintf_fnid
                0x000000000002e7cc                sysVsnprintf_fnid

.rodata.sceVNID
 *(.rodata.sceVNID .rodata.sceVNID.*)

.rodata.sceTNID
 *(.rodata.sceTNID .rodata.sceTNID.*)

.rodata.sceVStub
 *(.rodata.sceVStub)
 *(SORT(.rodata.sceVStub.*))
                0x000000000002e7d0                PROVIDE (__libentstart, .)

.lib.ent.top
 *(.lib.ent.top)

.lib.ent        0x000000000002e7d0        0x0
 *(.lib.ent)
 .lib.ent       0x000000000002e7d0        0x0 /usr/local/ps3dev/ppu/lib/gcc/powerpc64-ps3-elf/7.2.0/../../../../powerpc64-ps3-elf/lib/lv2-sprx.o

.lib.ent.btm
 *(.lib.ent.btm)
                0x000000000002e7d0                PROVIDE (__libentend, .)
                0x000000000002e7d0                PROVIDE (__libstubstart, .)

.lib.stub.top
 *(.lib.stub.top)

.lib.stub       0x000000000002e7d0       0xb0
 *(.lib.stub)
 .lib.stub      0x000000000002e7d0        0x0 /usr/local/ps3dev/ppu/lib/gcc/powerpc64-ps3-elf/7.2.0/../../../../powerpc64-ps3-elf/lib/lv2-sprx.o
 .lib.stub      0x000000000002e7d0       0x2c /usr/local/ps3dev/psl1ght/ppu/lib/libgcm_sys.a(sprx.o)
 .lib.stub      0x000000000002e7fc       0x2c /usr/local/ps3dev/psl1ght/ppu/lib/libsysutil.a(sprx.o)
 .lib.stub      0x000000000002e828       0x2c /usr/local/ps3dev/psl1ght/ppu/lib/libio.a(sprx.o)
 .lib.stub      0x000000000002e854       0x2c /usr/local/ps3dev/psl1ght/ppu/lib/liblv2.a(sprx.o)

.lib.stub.btm
 *(.lib.stub.btm)
                0x000000000002e880                PROVIDE (__libstubend, .)

.ppu_rodata
 *(.ppu_rodata .ppu_rodata.*)

.sys_proc_param
 *(.sys_proc_param)

.sys_proc_prx_param
                0x000000000002e880       0x28
 *(.sys_proc_prx_param)
 .sys_proc_prx_param
                0x000000000002e880       0x28 /usr/local/ps3dev/ppu/lib/gcc/powerpc64-ps3-elf/7.2.0/../../../../powerpc64-ps3-elf/lib/lv2-sprx.o
                0x0000000000030000                . = ALIGN (0x10000)

.ppu_data
 *(.ppu_data .ppu_data.*)

.sdata2
 *(.sdata2 .sdata2.* .gnu.linkonce.s2.*)

.sbss2
 *(.sbss2 .sbss2.* .gnu.linkonce.sb2.*)

.eh_frame
 *(.eh_frame)

.gcc_except_table
 *(.gcc_except_table .gcc_except_table.*)
                0x0000000000030000                . = ALIGN (0x8)

.preinit_array  0x0000000000030000        0x0
                0x0000000000030000                PROVIDE (__preinit_array_start, .)
 *(.preinit_array)
                0x0000000000030000                PROVIDE (__preinit_array_end, .)

.init_array     0x0000000000030000        0x0
                0x0000000000030000                PROVIDE (__init_array_start, .)
 *(SORT(.init_array.*))
 *(.init_array)
                0x0000000000030000                PROVIDE (__init_array_end, .)

.fini_array     0x0000000000030000        0x0
                0x0000000000030000                PROVIDE (__fini_array_start, .)
 *(.fini_array)
 *(SORT(.fini_array.*))
                0x0000000000030000                PROVIDE (__fini_array_end, .)

.ctors          0x0000000000030000       0x28
 *crtbegin.o(.ctors)
 .ctors         0x0000000000030000        0x8 /usr/local/ps3dev/ppu/lib/gcc/powerpc64-ps3-elf/7.2.0/crtbegin.o
 *crtbegin?.o(.ctors)
 *(EXCLUDE_FILE(*crtend?.o *crtend.o) .ctors)
 *(SORT(.ctors.*))
 .ctors.65430   0x0000000000030008        0x8 /usr/local/ps3dev/ppu/lib/gcc/powerpc64-ps3-elf/7.2.0/../../../../powerpc64-ps3-elf/lib/libc.a(lib_a-lock_internal.o)
 .ctors.65431   0x0000000000030010        0x8 /usr/local/ps3dev/ppu/lib/gcc/powerpc64-ps3-elf/7.2.0/../../../../powerpc64-ps3-elf/lib/lv2-crt0.o
 .ctors.65432   0x0000000000030018        0x8 /usr/local/ps3dev/psl1ght/ppu/lib/librt.a(sbrk.o)
 *(.ctors)
 .ctors         0x0000000000030020        0x8 /usr/local/ps3dev/ppu/lib/gcc/powerpc64-ps3-elf/7.2.0/crtend.o

.dtors          0x0000000000030028       0x10
 *crtbegin.o(.dtors)
 .dtors         0x0000000000030028        0x8 /usr/local/ps3dev/ppu/lib/gcc/powerpc64-ps3-elf/7.2.0/crtbegin.o
 *crtbegin?.o(.dtors)
 *(EXCLUDE_FILE(*crtend?.o *crtend.o) .dtors)
 *(SORT(.dtors.*))
 *(.dtors)
 .dtors         0x0000000000030030        0x8 /usr/local/ps3dev/ppu/lib/gcc/powerpc64-ps3-elf/7.2.0/crtend.o
                0x0000000000030030                __DTOR_END__

.jcr
 *(.jcr)

.data.rel.ro
 *(.data.rel.ro.local*)
 *(.data.rel.ro*)

.dynamic
 *(.dynamic)

.data.sceFStub  0x0000000000030038      0x53c
 *(.data.sceFStub)
 *(SORT(.data.sceFStub.*))
 .data.sceFStub.cellGcmSys
                0x0000000000030038      0x164 /usr/local/ps3dev/psl1ght/ppu/lib/libgcm_sys.a(sprx.o)
                0x0000000000030038                gcmInitBody_stub
                0x000000000003003c                gcmSetDisplayBuffer_stub
                0x0000000000030040                gcmGetControlRegister_stub
                0x0000000000030044                gcmAddressToOffset_stub
                0x0000000000030048                gcmGetConfiguration_stub
                0x000000000003004c                gcmGetCurrentField_stub
                0x0000000000030050                gcmSetFlipMode_stub
                0x0000000000030054                gcmGetFlipStatus_stub
                0x0000000000030058                gcmGetLastFlipTime_stub
                0x000000000003005c                gcmGetVBlankCount_stub
                0x0000000000030060                gcmSetWaitFlip_stub
                0x0000000000030064                gcmSetFlipStatus_stub
                0x0000000000030068                gcmResetFlipStatus_stub
                0x000000000003006c                gcmSetFlip_stub
                0x0000000000030070                gcmSetFlipImmediate_stub
                0x0000000000030074                gcmFunc15_stub
                0x0000000000030078                gcmFunc3_stub
                0x000000000003007c                gcmFunc1_stub
                0x0000000000030080                gcmFunc2_stub
                0x0000000000030084                gcmFunc4_stub
                0x0000000000030088                gcmFunc12_stub
                0x000000000003008c                gcmFunc13_stub
                0x0000000000030090                gcmGetReport_stub
                0x0000000000030094                gcmSetTile_stub
                0x0000000000030098                gcmBindTile_stub
                0x000000000003009c                gcmUnbindTile_stub
                0x00000000000300a0                gcmSetZcull_stub
                0x00000000000300a4                gcmBindZcull_stub
                0x00000000000300a8                gcmUnbindZcull_stub
                0x00000000000300ac                gcmGetTimeStamp_stub
                0x00000000000300b0                gcmSetVBlankFrequency_stub
                0x00000000000300b4                gcmSetSecondVFrequency_stub
                0x00000000000300b8                gcmSetDebugOutputLevel_stub
                0x00000000000300bc                gcmGetLabelAddress_stub
                0x00000000000300c0                gcmSetVBlankHandlerEx_stub
                0x00000000000300c4                gcmSetFlipHandlerEx_stub
                0x00000000000300c8                gcmSetSecondVHandlerEx_stub
                0x00000000000300cc                gcmSetGraphicsHandlerEx_stub
                0x00000000000300d0                gcmTerminate_stub
                0x00000000000300d4                gcmMapMainMemory_stub
                0x00000000000300d8                gcmMapEaIoAddress_stub
                0x00000000000300dc                gcmUnmapEaIoAddress_stub
                0x00000000000300e0                gcmUnmapIoAddress_stub
                0x00000000000300e4                gcmIoOffsetToAddress_stub
                0x00000000000300e8                gcmSetDefaultCommandBuffer_stub
                0x00000000000300ec                gcmSetTileInfo_stub
                0x00000000000300f0                gcmGetTiledPitchSize_stub
                0x00000000000300f4                gcmSetInvalidateTile_stub
                0x00000000000300f8                gcmSetUserCommandEx_stub
                0x00000000000300fc                gcmSetUserHandlerEx_stub
                0x0000000000030100                gcmSetQueueHandlerEx_stub
                0x0000000000030104                gcmSetPrepareFlip_stub
                0x0000000000030108                gcmGetOffsetTable_stub
                0x000000000003010c                gcmGetLastSecondVTime_stub
                0x0000000000030110                gcmSortRemapEaIoAddress_stub
                0x0000000000030114                gcmGetDisplayBufferByFlipIndex_stub
                0x0000000000030118                gcmGcmGetDefaultCommandWordSize_stub
                0x000000000003011c                gcmGcmGetDefaultSegmentWordSize_stub
                0x0000000000030120                gcmSetDefaultCommandBufferAndSegmentWordSize_stub
                0x0000000000030124                gcmGetDisplayInfo_stub
                0x0000000000030128                gcmDumpGraphicsError_stub
                0x000000000003012c                gcmFunc38_stub
                0x0000000000030130                gcmGetCurrentDisplayBufferId_stub
                0x0000000000030134                gcmGetDefaultCommandWordSize_stub
                0x0000000000030138                gcmGetDefaultSegmentWordSize_stub
                0x000000000003013c                gcmGetMaxIoMapSize_stub
                0x0000000000030140                gcmGetNotifyDataAddress_stub
                0x0000000000030144                gcmGetReportDataAddress_stub
                0x0000000000030148                gcmGetReportDataAddressLocation_stub
                0x000000000003014c                gcmGetReportDataLocation_stub
                0x0000000000030150                gcmGetTileInfo_stub
                0x0000000000030154                gcmGetTimeStampLocation_stub
                0x0000000000030158                gcmGetZcullInfo_stub
                0x000000000003015c                gcmInitCursor_stub
                0x0000000000030160                gcmInitDefaultFifoMode_stub
                0x0000000000030164                gcmInitSystemMode_stub
                0x0000000000030168                gcmMapEaIoAddressWithFlags_stub
                0x000000000003016c                gcmMapLocalMemory_stub
                0x0000000000030170                gcmReserveIoMapSize_stub
                0x0000000000030174                gcmSetCursorDisable_stub
                0x0000000000030178                gcmSetCursorEnable_stub
                0x000000000003017c                gcmSetCursorImageOffset_stub
                0x0000000000030180                gcmSetCursorPosition_stub
                0x0000000000030184                gcmSetDefaultFifoSize_stub
                0x0000000000030188                gcmSetFlipCommand_stub
                0x000000000003018c                gcmSetFlipCommandWithWaitLabel_stub
                0x0000000000030190                gcmSysGetLastVBlankTime_stub
                0x0000000000030194                gcmUnreserveIoMapSize_stub
                0x0000000000030198                gcmUpdateCursor_stub
 .data.sceFStub.cellSysutil
                0x000000000003019c      0x140 /usr/local/ps3dev/psl1ght/ppu/lib/libsysutil.a(sprx.o)
                0x000000000003019c                videoGetResolution_stub
                0x00000000000301a0                videoConfigure_stub
                0x00000000000301a4                videoGetState_stub
                0x00000000000301a8                videoGetDeviceInfo_stub
                0x00000000000301ac                videoGetConfiguration_stub
                0x00000000000301b0                videoGetResolutionAvailability_stub
                0x00000000000301b4                videoDebugSetMonitorType_stub
                0x00000000000301b8                videoRegisterCallbackEx_stub
                0x00000000000301bc                videoUnregisterCallback_stub
                0x00000000000301c0                videoGetNumberOfDevice_stub
                0x00000000000301c4                videoGetConvertCursorColorInfo_stub
                0x00000000000301c8                msgDialogClose_stub
                0x00000000000301cc                msgDialogOpenErrorCodeEx_stub
                0x00000000000301d0                msgDialogOpenEx_stub
                0x00000000000301d4                msgDialogProgressBarInc_stub
                0x00000000000301d8                msgDialogAbort_stub
                0x00000000000301dc                msgDialogOpen2Ex_stub
                0x00000000000301e0                msgDialogProgressBarReset_stub
                0x00000000000301e4                msgDialogProgressBarSetMsg_stub
                0x00000000000301e8                oskGetInputText_stub
                0x00000000000301ec                oskSetInitialInputDevice_stub
                0x00000000000301f0                oskGetSize_stub
                0x00000000000301f4                oskUnloadAsync_stub
                0x00000000000301f8                oskDisableDimmer_stub
                0x00000000000301fc                oskSetKeyLayoutOption_stub
                0x0000000000030200                oskAbort_stub
                0x0000000000030204                oskSetDeviceMask_stub
                0x0000000000030208                oskSetSeparateWindowOption_stub
                0x000000000003020c                oskAddSupportLanguage_stub
                0x0000000000030210                oskLoadAsync_stub
                0x0000000000030214                oskSetInitialKeyLayout_stub
                0x0000000000030218                oskSetLayoutMode_stub
                0x000000000003021c                sysUtilRegisterCallbackEx_stub
                0x0000000000030220                sysUtilCheckCallback_stub
                0x0000000000030224                sysUtilUnregisterCallback_stub
                0x0000000000030228                sysSaveListLoad2Ex_stub
                0x000000000003022c                sysSaveListSave2Ex_stub
                0x0000000000030230                sysSaveListAutoLoadEx_stub
                0x0000000000030234                sysSaveListAutoSaveEx_stub
                0x0000000000030238                sysSaveFixedLoad2Ex_stub
                0x000000000003023c                sysSaveFixedSave2Ex_stub
                0x0000000000030240                sysSaveAutoLoad2Ex_stub
                0x0000000000030244                sysSaveAutoSave2Ex_stub
                0x0000000000030248                sysSaveDelete2_stub
                0x000000000003024c                sysGameDataCheck_stub
                0x0000000000030250                sysGameBootCheck_stub
                0x0000000000030254                sysGamePatchCheck_stub
                0x0000000000030258                sysGameCreateGameData_stub
                0x000000000003025c                sysGameGetParamInt_stub
                0x0000000000030260                sysGameGetParamString_stub
                0x0000000000030264                sysGameGetSizeKB_stub
                0x0000000000030268                sysGameSetParamString_stub
                0x000000000003026c                sysGameGetDiscContentInfoUpdatePath_stub
                0x0000000000030270                sysGameContentPermit_stub
                0x0000000000030274                sysGameContentErrorDialog_stub
                0x0000000000030278                sysGameThemeInstall_stub
                0x000000000003027c                sysGameThemeInstallFromBufferEx_stub
                0x0000000000030280                sysGameGetLocalWebContentPath_stub
                0x0000000000030284                sysGameDeleteGameData_stub
                0x0000000000030288                sysGameRegisterDiscChangeCallbackEx_stub
                0x000000000003028c                sysGameUnregisterDiscChangeCallback_stub
                0x0000000000030290                sysDiscRegisterDiscChangeCallbackEx_stub
                0x0000000000030294                sysDiscUnregisterDiscChangeCallback_stub
                0x0000000000030298                sysTrophyInit_stub
                0x000000000003029c                sysTrophyAbortHandle_stub
                0x00000000000302a0                sysTrophyCreateContext_stub
                0x00000000000302a4                sysTrophyCreateHandle_stub
                0x00000000000302a8                sysTrophyDestroyContext_stub
                0x00000000000302ac                sysTrophyDestroyHandle_stub
                0x00000000000302b0                sysTrophyGetGameIcon_stub
                0x00000000000302b4                sysTrophyGetGameInfo_stub
                0x00000000000302b8                sysTrophyGetGameProgress_stub
                0x00000000000302bc                sysTrophyGetRequiredDiskSpace_stub
                0x00000000000302c0                sysTrophyGetTrophyIcon_stub
                0x00000000000302c4                sysTrophyGetTrophyInfo_stub
                0x00000000000302c8                sysTrophyGetTrophyUnlockState_stub
                0x00000000000302cc                sysTrophyRegisterContextEx_stub
                0x00000000000302d0                sysTrophySetSoundLevel_stub
                0x00000000000302d4                sysTrophyTerm_stub
                0x00000000000302d8                sysTrophyUnlockTrophy_stub
 .data.sceFStub.sysPrxForUser
                0x00000000000302dc      0x1dc /usr/local/ps3dev/psl1ght/ppu/lib/liblv2.a(sprx.o)
                0x00000000000302dc                sysGetSystemTime_stub
                0x00000000000302e0                sysGetSystemSwVersion_stub
                0x00000000000302e4                sysGetTemperature_stub
                0x00000000000302e8                sysGetRandomNumber_stub
                0x00000000000302ec                sysGetRtcStatus_stub
                0x00000000000302f0                sysBoardStorageRead_stub
                0x00000000000302f4                sysBoardStorageWrite_stub
                0x00000000000302f8                sysProcessIsStack_stub
                0x00000000000302fc                sysProcessExit_stub
                0x0000000000030300                sysProcessExitspawn_stub
                0x0000000000030304                sysProcessExitSpawn2Ex_stub
                0x0000000000030308                sysProcessExitSpawnWithLevel_stub
                0x000000000003030c                sysProcessAtExitSpawn_stub
                0x0000000000030310                sysProcess_At_ExitSpawn_stub
                0x0000000000030314                sysPrxRegisterLibrary_stub
                0x0000000000030318                sysPrxUnregisterLibrary_stub
                0x000000000003031c                sysPrxStartModule_stub
                0x0000000000030320                sysPrxStopModule_stub
                0x0000000000030324                sysPrxLoadModule_stub
                0x0000000000030328                sysPrxLoadModuleByFd_stub
                0x000000000003032c                sysPrxLoadModuleList_stub
                0x0000000000030330                sysPrxLoadModuleListOnMemcontainer_stub
                0x0000000000030334                sysPrxLoadModuleOnMemcontainer_stub
                0x0000000000030338                sysPrxLoadModuleOnMemcontainerByFd_stub
                0x000000000003033c                sysPrxGetModuleInfo_stub
                0x0000000000030340                sysPrxGetModuleList_stub
                0x0000000000030344                sysPrxGetModuleId_stub
                0x0000000000030348                sysPrxGetModuleIdByAddress_stub
                0x000000000003034c                sysPrxGetModuleIdByName_stub
                0x0000000000030350                sysPrxUnloadModule_stub
                0x0000000000030354                sysPrxExitSpawnWithLevel_stub
                0x0000000000030358                sysThreadCreateEx_stub
                0x000000000003035c                sysThreadExit_stub
                0x0000000000030360                sysThreadGetId_stub
                0x0000000000030364                sysThreadOnce_stub
                0x0000000000030368                sysThreadInitialzeTLS_stub
                0x000000000003036c                sysThreadRegisterAtexit_stub
                0x0000000000030370                sysThreadUnregisterAtexit_stub
                0x0000000000030374                sysInterruptThreadDisestablish_stub
                0x0000000000030378                sysLwMutexCreate_stub
                0x000000000003037c                sysLwMutexDestroy_stub
                0x0000000000030380                sysLwMutexLock_stub
                0x0000000000030384                sysLwMutexTryLock_stub
                0x0000000000030388                sysLwMutexUnlock_stub
                0x000000000003038c                sysLwCondCreate_stub
                0x0000000000030390                sysLwCondWait_stub
                0x0000000000030394                sysLwCondSignal_stub
                0x0000000000030398                sysLwCondSignalTo_stub
                0x000000000003039c                sysLwCondSignalAll_stub
                0x00000000000303a0                sysLwCondDestroy_stub
                0x00000000000303a4                sysSpinlockInitialize_stub
                0x00000000000303a8                sysSpinlockLock_stub
                0x00000000000303ac                sysSpinlockTryLock_stub
                0x00000000000303b0                sysSpinlockUnlock_stub
                0x00000000000303b4                sysWatchdogClear_stub
                0x00000000000303b8                sysWatchdogStart_stub
                0x00000000000303bc                sysWatchdogStop_stub
                0x00000000000303c0                sysMalloc_stub
                0x00000000000303c4                sysMemalign_stub
                0x00000000000303c8                sysMemchr_stub
                0x00000000000303cc                sysMemcmp_stub
                0x00000000000303d0                sysMemcpy_stub
                0x00000000000303d4                sysMemmove_stub
                0x00000000000303d8                sysMemset_stub
                0x00000000000303dc                sysFree_stub
                0x00000000000303e0                sysHeapAllocHeapMemory_stub
                0x00000000000303e4                sysHeapCreateHeap_stub
                0x00000000000303e8                sysHeapDeleteHeap_stub
                0x00000000000303ec                sysHeapFree_stub
                0x00000000000303f0                sysHeapGetMallInfo_stub
                0x00000000000303f4                sysHeapGetTotalFreeSize_stub
                0x00000000000303f8                sysHeapMalloc_stub
                0x00000000000303fc                sysHeapMemalign_stub
                0x0000000000030400                sysHeapStats_stub
                0x0000000000030404                sysQsort_stub
                0x0000000000030408                sysMempoolCreate_stub
                0x000000000003040c                sysMempoolDestroy_stub
                0x0000000000030410                sysMempoolGetCount_stub
                0x0000000000030414                sysMempoolAllocateBlock_stub
                0x0000000000030418                sysMempoolTryAllocateBlock_stub
                0x000000000003041c                sysMempoolFreeBlock_stub
                0x0000000000030420                sysMMapperFreeMemory_stub
                0x0000000000030424                sysMMapperMapMemory_stub
                0x0000000000030428                sysMMapperUnmapMemory_stub
                0x000000000003042c                sysMMapperAllocateMemory_stub
                0x0000000000030430                sysMMapperAllocateMemoryFromContainer_stub
                0x0000000000030434                sysStrlen_stub
                0x0000000000030438                sysStrcpy_stub
                0x000000000003043c                sysStrncpy_stub
                0x0000000000030440                sysStrcat_stub
                0x0000000000030444                sysStrncat_stub
                0x0000000000030448                sysStrchr_stub
                0x000000000003044c                sysStrrchr_stub
                0x0000000000030450                sysStrcmp_stub
                0x0000000000030454                sysStrncmp_stub
                0x0000000000030458                sysStrncasecmp_stub
                0x000000000003045c                sysToLower_stub
                0x0000000000030460                sysToUpper_stub
                0x0000000000030464                sysSpuElfGetSegments_stub
                0x0000000000030468                sysSpuElfGetInformation_stub
                0x000000000003046c                sysSpuRawLoad_stub
                0x0000000000030470                sysSpuRawImageLoad_stub
                0x0000000000030474                sysSpuImageClose_stub
                0x0000000000030478                sysSpuImageImport_stub
                0x000000000003047c                sysSpuPrintfAttachGroup_stub
                0x0000000000030480                sysSpuPrintfAttachThread_stub
                0x0000000000030484                sysSpuPrintfDetachGroup_stub
                0x0000000000030488                sysSpuPrintfDetach_Tread_stub
                0x000000000003048c                sysSpuPrintfFinalize_stub
                0x0000000000030490                sysSpuPrintfInitialize_stub
                0x0000000000030494                sysConsoleGetc_stub
                0x0000000000030498                sysConsolePutc_stub
                0x000000000003049c                sysConsoleWrite_stub
                0x00000000000304a0                sysPrintf_stub
                0x00000000000304a4                sysSprintf_stub
                0x00000000000304a8                sysSnprintf_stub
                0x00000000000304ac                sysVprintf_stub
                0x00000000000304b0                sysVsprintf_stub
                0x00000000000304b4                sysVsnprintf_stub
 .data.sceFStub.sys_io
                0x00000000000304b8       0xbc /usr/local/ps3dev/psl1ght/ppu/lib/libio.a(sprx.o)
                0x00000000000304b8                sys_config_start_stub
                0x00000000000304bc                sys_config_stop_stub
                0x00000000000304c0                sys_config_add_service_listener_stub
                0x00000000000304c4                sys_config_remove_service_listener_stub
                0x00000000000304c8                sys_config_register_service_stub
                0x00000000000304cc                sys_config_unregister_service_stub
                0x00000000000304d0                ioPadInit_stub
                0x00000000000304d4                ioPadEnd_stub
                0x00000000000304d8                ioPadClearBuf_stub
                0x00000000000304dc                ioPadInfoPressMode_stub
                0x00000000000304e0                ioPadLddRegisterController_stub
                0x00000000000304e4                ioPadGetInfo_stub
                0x00000000000304e8                ioPadGetRawData_stub
                0x00000000000304ec                ioPadGetDataExtra_stub
                0x00000000000304f0                ioPadInfoSensorMode_stub
                0x00000000000304f4                ioPadGetData_stub
                0x00000000000304f8                ioPadLddGetPortNo_stub
                0x00000000000304fc                ioPadLddDataInsert_stub
                0x0000000000030500                ioPadSetSensorMode_stub
                0x0000000000030504                ioPadGetCapabilityInfo_stub
                0x0000000000030508                ioPadLddUnregisterController_stub
                0x000000000003050c                ioPadSetActDirect_stub
                0x0000000000030510                ioPadSetPressMode_stub
                0x0000000000030514                ioPadPeriphGetInfo_stub
                0x0000000000030518                ioPadSetPortSetting_stub
                0x000000000003051c                ioPadPeriphGetData_stub
                0x0000000000030520                ioPadGetInfo2_stub
                0x0000000000030524                ioMouseInit_stub
                0x0000000000030528                ioMouseEnd_stub
                0x000000000003052c                ioMouseClearBuf_stub
                0x0000000000030530                ioMouseGetInfo_stub
                0x0000000000030534                ioMouseGetTabletDataList_stub
                0x0000000000030538                ioMouseSetTabletMode_stub
                0x000000000003053c                ioMouseGetData_stub
                0x0000000000030540                ioMouseInfoTabletMode_stub
                0x0000000000030544                ioMouseGetRawData_stub
                0x0000000000030548                ioMouseGetDataList_stub
                0x000000000003054c                ioKbInit_stub
                0x0000000000030550                ioKbEnd_stub
                0x0000000000030554                ioKbRead_stub
                0x0000000000030558                ioKbSetReadMode_stub
                0x000000000003055c                ioKbSetCodeType_stub
                0x0000000000030560                ioKbCnvRawCode_stub
                0x0000000000030564                ioKbSetLEDStatus_stub
                0x0000000000030568                ioKbGetInfo_stub
                0x000000000003056c                ioKbGetConfiguration_stub
                0x0000000000030570                ioKbClearBuf_stub

.toc1
 *(.toc1)

.opd            0x0000000000030578     0x3c18
 *(.opd)
 .opd           0x0000000000030578       0x30 /usr/local/ps3dev/ppu/lib/gcc/powerpc64-ps3-elf/7.2.0/../../../../powerpc64-ps3-elf/lib/lv2-crti.o
                0x0000000000030578                _init
                0x0000000000030590                _fini
 .opd           0x00000000000305a8       0x60 /usr/local/ps3dev/ppu/lib/gcc/powerpc64-ps3-elf/7.2.0/crtbegin.o
 .opd           0x0000000000030608       0x48 /usr/local/ps3dev/ppu/lib/gcc/powerpc64-ps3-elf/7.2.0/../../../../powerpc64-ps3-elf/lib/lv2-crt0.o
                0x0000000000030638                _initialize
 .opd           0x0000000000030650       0x30 main.o
                0x0000000000030650                drawFrame
                0x0000000000030668                main
 .opd           0x0000000000030680       0x90 rsxutil.o
                0x0000000000030680                waitFlip
                0x0000000000030698                flip
                0x00000000000306b0                makeBuffer
                0x00000000000306c8                getResolution
                0x00000000000306e0                initScreen
                0x00000000000306f8                setRenderTarget
 .opd           0x0000000000030710      0x858 /usr/local/ps3dev/psl1ght/ppu/lib/libgcm_sys.a(sprx.o)
                0x0000000000030710                gcmInitBody
                0x0000000000030728                gcmSetDisplayBuffer
                0x0000000000030740                gcmGetControlRegister
                0x0000000000030758                gcmAddressToOffset
                0x0000000000030770                gcmGetConfiguration
                0x0000000000030788                gcmGetCurrentField
                0x00000000000307a0                gcmSetFlipMode
                0x00000000000307b8                gcmGetFlipStatus
                0x00000000000307d0                gcmGetLastFlipTime
                0x00000000000307e8                gcmGetVBlankCount
                0x0000000000030800                gcmSetWaitFlip
                0x0000000000030818                gcmSetFlipStatus
                0x0000000000030830                gcmResetFlipStatus
                0x0000000000030848                gcmSetFlip
                0x0000000000030860                gcmSetFlipImmediate
                0x0000000000030878                gcmFunc15
                0x0000000000030890                gcmFunc3
                0x00000000000308a8                gcmFunc1
                0x00000000000308c0                gcmFunc2
                0x00000000000308d8                gcmFunc4
                0x00000000000308f0                gcmFunc12
                0x0000000000030908                gcmFunc13
                0x0000000000030920                gcmGetReport
                0x0000000000030938                gcmSetTile
                0x0000000000030950                gcmBindTile
                0x0000000000030968                gcmUnbindTile
                0x0000000000030980                gcmSetZcull
                0x0000000000030998                gcmBindZcull
                0x00000000000309b0                gcmUnbindZcull
                0x00000000000309c8                gcmGetTimeStamp
                0x00000000000309e0                gcmSetVBlankFrequency
                0x00000000000309f8                gcmSetSecondVFrequency
                0x0000000000030a10                gcmSetDebugOutputLevel
                0x0000000000030a28                gcmGetLabelAddress
                0x0000000000030a40                gcmSetVBlankHandlerEx
                0x0000000000030a58                gcmSetFlipHandlerEx
                0x0000000000030a70                gcmSetSecondVHandlerEx
                0x0000000000030a88                gcmSetGraphicsHandlerEx
                0x0000000000030aa0                gcmTerminate
                0x0000000000030ab8                gcmMapMainMemory
                0x0000000000030ad0                gcmMapEaIoAddress
                0x0000000000030ae8                gcmUnmapEaIoAddress
                0x0000000000030b00                gcmUnmapIoAddress
                0x0000000000030b18                gcmIoOffsetToAddress
                0x0000000000030b30                gcmSetDefaultCommandBuffer
                0x0000000000030b48                gcmSetTileInfo
                0x0000000000030b60                gcmGetTiledPitchSize
                0x0000000000030b78                gcmSetInvalidateTile
                0x0000000000030b90                gcmSetUserCommandEx
                0x0000000000030ba8                gcmSetUserHandlerEx
                0x0000000000030bc0                gcmSetQueueHandlerEx
                0x0000000000030bd8                gcmSetPrepareFlip
                0x0000000000030bf0                gcmGetOffsetTable
                0x0000000000030c08                gcmGetLastSecondVTime
                0x0000000000030c20                gcmSortRemapEaIoAddress
                0x0000000000030c38                gcmGetDisplayBufferByFlipIndex
                0x0000000000030c50                gcmGcmGetDefaultCommandWordSize
                0x0000000000030c68                gcmGcmGetDefaultSegmentWordSize
                0x0000000000030c80                gcmSetDefaultCommandBufferAndSegmentWordSize
                0x0000000000030c98                gcmGetDisplayInfo
                0x0000000000030cb0                gcmDumpGraphicsError
                0x0000000000030cc8                gcmFunc38
                0x0000000000030ce0                gcmGetCurrentDisplayBufferId
                0x0000000000030cf8                gcmGetDefaultCommandWordSize
                0x0000000000030d10                gcmGetDefaultSegmentWordSize
                0x0000000000030d28                gcmGetMaxIoMapSize
                0x0000000000030d40                gcmGetNotifyDataAddress
                0x0000000000030d58                gcmGetReportDataAddress
                0x0000000000030d70                gcmGetReportDataAddressLocation
                0x0000000000030d88                gcmGetReportDataLocation
                0x0000000000030da0                gcmGetTileInfo
                0x0000000000030db8                gcmGetTimeStampLocation
                0x0000000000030dd0                gcmGetZcullInfo
                0x0000000000030de8                gcmInitCursor
                0x0000000000030e00                gcmInitDefaultFifoMode
                0x0000000000030e18                gcmInitSystemMode
                0x0000000000030e30                gcmMapEaIoAddressWithFlags
                0x0000000000030e48                gcmMapLocalMemory
                0x0000000000030e60                gcmReserveIoMapSize
                0x0000000000030e78                gcmSetCursorDisable
                0x0000000000030e90                gcmSetCursorEnable
                0x0000000000030ea8                gcmSetCursorImageOffset
                0x0000000000030ec0                gcmSetCursorPosition
                0x0000000000030ed8                gcmSetDefaultFifoSize
                0x0000000000030ef0                gcmSetFlipCommand
                0x0000000000030f08                gcmSetFlipCommandWithWaitLabel
                0x0000000000030f20                gcmSysGetLastVBlankTime
                0x0000000000030f38                gcmUnreserveIoMapSize
                0x0000000000030f50                gcmUpdateCursor
 .opd           0x0000000000030f68       0x30 /usr/local/ps3dev/psl1ght/ppu/lib/librsx.a(init.o)
                0x0000000000030f68                rsxInit
                0x0000000000030f80                rsxSetupContextData
 .opd           0x0000000000030f98       0x48 /usr/local/ps3dev/psl1ght/ppu/lib/librsx.a(buffer.o)
                0x0000000000030f98                rsxResetCommandBuffer
                0x0000000000030fb0                rsxFlushBuffer
                0x0000000000030fc8                rsxFinish
 .opd           0x0000000000030fe0      0x5b8 /usr/local/ps3dev/psl1ght/ppu/lib/librsx.a(commands.o)
                0x0000000000030ff8                rsxContextCallback
                0x0000000000031010                rsxSetReturnCommand
                0x0000000000031028                rsxSetCallCommand
                0x0000000000031040                rsxSetJumpCommand
                0x0000000000031058                rsxSetNopCommand
                0x0000000000031070                rsxSetClearColor
                0x0000000000031088                rsxSetClearDepthValue
                0x00000000000310a0                rsxSetReferenceCommand
                0x00000000000310b8                rsxSetWriteBackendLabel
                0x00000000000310d0                rsxSetWaitLabel
                0x00000000000310e8                rsxSetWriteCommandLabel
                0x0000000000031100                rsxSetSurface
                0x0000000000031118                rsxSetColorMask
                0x0000000000031130                rsxSetColorMaskMRT
                0x0000000000031148                rsxSetShadeModel
                0x0000000000031160                rsxSetViewport
                0x0000000000031178                rsxSetViewportClip
                0x0000000000031190                rsxSetUserClipPlaneControl
                0x00000000000311a8                rsxSetDepthTestEnable
                0x00000000000311c0                rsxSetDepthFunc
                0x00000000000311d8                rsxSetDepthWriteEnable
                0x00000000000311f0                rsxSetCullFaceEnable
                0x0000000000031208                rsxSetCullFace
                0x0000000000031220                rsxSetFrontFace
                0x0000000000031238                rsxClearSurface
                0x0000000000031250                rsxLoadVertexProgramBlock
                0x0000000000031268                rsxLoadFragmentProgramLocation
                0x0000000000031280                rsxLoadVertexProgramParameterBlock
                0x0000000000031298                rsxLoadVertexProgram
                0x00000000000312b0                rsxSetVertexProgramParameter
                0x00000000000312c8                rsxDrawVertexBegin
                0x00000000000312e0                rsxDrawVertexEnd
                0x00000000000312f8                rsxDrawVertex2f
                0x0000000000031310                rsxDrawVertex3f
                0x0000000000031328                rsxDrawVertex4f
                0x0000000000031340                rsxInvalidateTextureCache
                0x0000000000031358                rsxLoadTexture
                0x0000000000031370                rsxTextureControl
                0x0000000000031388                rsxTextureFilter
                0x00000000000313a0                rsxTextureWrapMode
                0x00000000000313b8                rsxZControl
                0x00000000000313d0                rsxBindVertexArrayAttrib
                0x00000000000313e8                rsxDrawVertexArray
                0x0000000000031400                rsxDrawIndexArray
                0x0000000000031418                rsxSetScissor
                0x0000000000031430                rsxInlineTransfer
                0x0000000000031448                rsxSetFragmentProgramParameter
                0x0000000000031460                rsxSetBlendFunc
                0x0000000000031478                rsxSetBlendEquation
                0x0000000000031490                rsxSetBlendColor
                0x00000000000314a8                rsxSetBlendEnable
                0x00000000000314c0                rsxSetTransformBranchBits
                0x00000000000314d8                rsxSetTransferData
                0x00000000000314f0                rsxSetTransferDataMode
                0x0000000000031508                rsxSetTransferDataOffset
                0x0000000000031520                rsxSetTransferDataFormat
                0x0000000000031538                rsxSetTransferImage
                0x0000000000031550                rsxSetTransferScaleMode
                0x0000000000031568                rsxSetTransferScaleSurface
                0x0000000000031580                rsxSetTimeStamp
 .opd           0x0000000000031598       0x60 /usr/local/ps3dev/psl1ght/ppu/lib/librsx.a(mm.o)
                0x0000000000031598                rsxHeapInit
                0x00000000000315b0                rsxMemalign
                0x00000000000315c8                rsxMalloc
                0x00000000000315e0                rsxFree
 .opd           0x00000000000315f8       0x78 /usr/local/ps3dev/psl1ght/ppu/lib/librsx.a(vertex_program.o)
                0x00000000000315f8                rsxVertexProgramGetUCode
                0x0000000000031610                rsxVertexProgramGetConsts
                0x0000000000031628                rsxVertexProgramGetConst
                0x0000000000031640                rsxVertexProgramGetAttribs
                0x0000000000031658                rsxVertexProgramGetAttrib
 .opd           0x0000000000031670       0x90 /usr/local/ps3dev/psl1ght/ppu/lib/librsx.a(fragment_program.o)
                0x0000000000031670                rsxFragmentProgramGetUCode
                0x0000000000031688                rsxFragmentProgramGetConsts
                0x00000000000316a0                rsxFragmentProgramGetConst
                0x00000000000316b8                rsxFragmentProgramGetAttribs
                0x00000000000316d0                rsxFragmentProgramGetAttrib
                0x00000000000316e8                rsxFragmentProgramGetConstOffsetTable
 .opd           0x0000000000031700      0x780 /usr/local/ps3dev/psl1ght/ppu/lib/libsysutil.a(sprx.o)
                0x0000000000031700                videoGetResolution
                0x0000000000031718                videoConfigure
                0x0000000000031730                videoGetState
                0x0000000000031748                videoGetDeviceInfo
                0x0000000000031760                videoGetConfiguration
                0x0000000000031778                videoGetResolutionAvailability
                0x0000000000031790                videoDebugSetMonitorType
                0x00000000000317a8                videoRegisterCallbackEx
                0x00000000000317c0                videoUnregisterCallback
                0x00000000000317d8                videoGetNumberOfDevice
                0x00000000000317f0                videoGetConvertCursorColorInfo
                0x0000000000031808                msgDialogClose
                0x0000000000031820                msgDialogOpenErrorCodeEx
                0x0000000000031838                msgDialogOpenEx
                0x0000000000031850                msgDialogProgressBarInc
                0x0000000000031868                msgDialogAbort
                0x0000000000031880                msgDialogOpen2Ex
                0x0000000000031898                msgDialogProgressBarReset
                0x00000000000318b0                msgDialogProgressBarSetMsg
                0x00000000000318c8                oskGetInputText
                0x00000000000318e0                oskSetInitialInputDevice
                0x00000000000318f8                oskGetSize
                0x0000000000031910                oskUnloadAsync
                0x0000000000031928                oskDisableDimmer
                0x0000000000031940                oskSetKeyLayoutOption
                0x0000000000031958                oskAbort
                0x0000000000031970                oskSetDeviceMask
                0x0000000000031988                oskSetSeparateWindowOption
                0x00000000000319a0                oskAddSupportLanguage
                0x00000000000319b8                oskLoadAsync
                0x00000000000319d0                oskSetInitialKeyLayout
                0x00000000000319e8                oskSetLayoutMode
                0x0000000000031a00                sysUtilRegisterCallbackEx
                0x0000000000031a18                sysUtilCheckCallback
                0x0000000000031a30                sysUtilUnregisterCallback
                0x0000000000031a48                sysSaveListLoad2Ex
                0x0000000000031a60                sysSaveListSave2Ex
                0x0000000000031a78                sysSaveListAutoLoadEx
                0x0000000000031a90                sysSaveListAutoSaveEx
                0x0000000000031aa8                sysSaveFixedLoad2Ex
                0x0000000000031ac0                sysSaveFixedSave2Ex
                0x0000000000031ad8                sysSaveAutoLoad2Ex
                0x0000000000031af0                sysSaveAutoSave2Ex
                0x0000000000031b08                sysSaveDelete2
                0x0000000000031b20                sysGameDataCheck
                0x0000000000031b38                sysGameBootCheck
                0x0000000000031b50                sysGamePatchCheck
                0x0000000000031b68                sysGameCreateGameData
                0x0000000000031b80                sysGameGetParamInt
                0x0000000000031b98                sysGameGetParamString
                0x0000000000031bb0                sysGameGetSizeKB
                0x0000000000031bc8                sysGameSetParamString
                0x0000000000031be0                sysGameGetDiscContentInfoUpdatePath
                0x0000000000031bf8                sysGameContentPermit
                0x0000000000031c10                sysGameContentErrorDialog
                0x0000000000031c28                sysGameThemeInstall
                0x0000000000031c40                sysGameThemeInstallFromBufferEx
                0x0000000000031c58                sysGameGetLocalWebContentPath
                0x0000000000031c70                sysGameDeleteGameData
                0x0000000000031c88                sysGameRegisterDiscChangeCallbackEx
                0x0000000000031ca0                sysGameUnregisterDiscChangeCallback
                0x0000000000031cb8                sysDiscRegisterDiscChangeCallbackEx
                0x0000000000031cd0                sysDiscUnregisterDiscChangeCallback
                0x0000000000031ce8                sysTrophyInit
                0x0000000000031d00                sysTrophyAbortHandle
                0x0000000000031d18                sysTrophyCreateContext
                0x0000000000031d30                sysTrophyCreateHandle
                0x0000000000031d48                sysTrophyDestroyContext
                0x0000000000031d60                sysTrophyDestroyHandle
                0x0000000000031d78                sysTrophyGetGameIcon
                0x0000000000031d90                sysTrophyGetGameInfo
                0x0000000000031da8                sysTrophyGetGameProgress
                0x0000000000031dc0                sysTrophyGetRequiredDiskSpace
                0x0000000000031dd8                sysTrophyGetTrophyIcon
                0x0000000000031df0                sysTrophyGetTrophyInfo
                0x0000000000031e08                sysTrophyGetTrophyUnlockState
                0x0000000000031e20                sysTrophyRegisterContextEx
                0x0000000000031e38                sysTrophySetSoundLevel
                0x0000000000031e50                sysTrophyTerm
                0x0000000000031e68                sysTrophyUnlockTrophy
 .opd           0x0000000000031e80      0x468 /usr/local/ps3dev/psl1ght/ppu/lib/libio.a(sprx.o)
                0x0000000000031e80                sys_config_start
                0x0000000000031e98                sys_config_stop
                0x0000000000031eb0                sys_config_add_service_listener
                0x0000000000031ec8                sys_config_remove_service_listener
                0x0000000000031ee0                sys_config_register_service
                0x0000000000031ef8                sys_config_unregister_service
                0x0000000000031f10                ioPadInit
                0x0000000000031f28                ioPadEnd
                0x0000000000031f40                ioPadClearBuf
                0x0000000000031f58                ioPadInfoPressMode
                0x0000000000031f70                ioPadLddRegisterController
                0x0000000000031f88                ioPadGetInfo
                0x0000000000031fa0                ioPadGetRawData
                0x0000000000031fb8                ioPadGetDataExtra
                0x0000000000031fd0                ioPadInfoSensorMode
                0x0000000000031fe8                ioPadGetData
                0x0000000000032000                ioPadLddGetPortNo
                0x0000000000032018                ioPadLddDataInsert
                0x0000000000032030                ioPadSetSensorMode
                0x0000000000032048                ioPadGetCapabilityInfo
                0x0000000000032060                ioPadLddUnregisterController
                0x0000000000032078                ioPadSetActDirect
                0x0000000000032090                ioPadSetPressMode
                0x00000000000320a8                ioPadPeriphGetInfo
                0x00000000000320c0                ioPadSetPortSetting
                0x00000000000320d8                ioPadPeriphGetData
                0x00000000000320f0                ioPadGetInfo2
                0x0000000000032108                ioMouseInit
                0x0000000000032120                ioMouseEnd
                0x0000000000032138                ioMouseClearBuf
                0x0000000000032150                ioMouseGetInfo
                0x0000000000032168                ioMouseGetTabletDataList
                0x0000000000032180                ioMouseSetTabletMode
                0x0000000000032198                ioMouseGetData
                0x00000000000321b0                ioMouseInfoTabletMode
                0x00000000000321c8                ioMouseGetRawData
                0x00000000000321e0                ioMouseGetDataList
                0x00000000000321f8                ioKbInit
                0x0000000000032210                ioKbEnd
                0x0000000000032228                ioKbRead
                0x0000000000032240                ioKbSetReadMode
                0x0000000000032258                ioKbSetCodeType
                0x0000000000032270                ioKbCnvRawCode
                0x0000000000032288                ioKbSetLEDStatus
                0x00000000000322a0                ioKbGetInfo
                0x00000000000322b8                ioKbGetConfiguration
                0x00000000000322d0                ioKbClearBuf
 .opd           0x00000000000322e8       0x48 /usr/local/ps3dev/psl1ght/ppu/lib/librt.a(sbrk.o)
                0x0000000000032318                __librt_sbrk_r
 .opd           0x0000000000032330       0x18 /usr/local/ps3dev/psl1ght/ppu/lib/librt.a(exit.o)
                0x0000000000032330                __librt_exit
 .opd           0x0000000000032348       0x18 /usr/local/ps3dev/psl1ght/ppu/lib/librt.a(close.o)
                0x0000000000032348                __librt_close_r
 .opd           0x0000000000032360       0x30 /usr/local/ps3dev/psl1ght/ppu/lib/librt.a(lseek.o)
                0x0000000000032360                __librt_lseek_r
                0x0000000000032378                __librt_lseek64_r
 .opd           0x0000000000032390       0x18 /usr/local/ps3dev/psl1ght/ppu/lib/librt.a(read.o)
                0x0000000000032390                __librt_read_r
 .opd           0x00000000000323a8       0x18 /usr/local/ps3dev/psl1ght/ppu/lib/librt.a(open.o)
                0x00000000000323a8                __librt_open_r
 .opd           0x00000000000323c0       0x30 /usr/local/ps3dev/psl1ght/ppu/lib/librt.a(sleep.o)
                0x00000000000323c0                __librt_usleep_r
                0x00000000000323d8                __librt_sleep_r
 .opd           0x00000000000323f0       0x18 /usr/local/ps3dev/psl1ght/ppu/lib/librt.a(write.o)
                0x00000000000323f0                __librt_write_r
 .opd           0x0000000000032408       0x60 /usr/local/ps3dev/psl1ght/ppu/lib/librt.a(fstat.o)
                0x0000000000032408                __librt_fstat_r
                0x0000000000032420                __librt_fstat64_r
                0x0000000000032438                __librt_stat_r
                0x0000000000032450                __librt_stat64_r
 .opd           0x0000000000032468      0x150 /usr/local/ps3dev/psl1ght/ppu/lib/librt.a(socket.o)
                0x0000000000032468                accept
                0x0000000000032480                bind
                0x0000000000032498                connect
                0x00000000000324b0                listen
                0x00000000000324c8                socket
                0x00000000000324e0                send
                0x00000000000324f8                sendto
                0x0000000000032510                recv
                0x0000000000032528                recvfrom
                0x0000000000032540                shutdown
                0x0000000000032558                inet_aton
                0x0000000000032570                inet_pton
                0x0000000000032588                select
                0x00000000000325a0                closesocket
 .opd           0x00000000000325b8       0x78 /usr/local/ps3dev/psl1ght/ppu/lib/librt.a(lock.o)
                0x00000000000325b8                __librt_sys_lwmutex_create_r
                0x00000000000325d0                __librt_sys_lwmutex_destroy_r
                0x00000000000325e8                __librt_sys_lwmutex_lock_r
                0x0000000000032600                __librt_sys_lwmutex_trylock_r
                0x0000000000032618                __librt_sys_lwmutex_unlock_r
 .opd           0x0000000000032630       0xc0 /usr/local/ps3dev/psl1ght/ppu/lib/librt.a(dirent.o)
                0x0000000000032648                __librt_opendir_r
                0x0000000000032660                __librt_readdir_r
                0x0000000000032678                __librt_readdir_r_r
                0x0000000000032690                __librt_closedir_r
                0x00000000000326a8                __librt_telldir_r
                0x00000000000326c0                __librt_rewinddir_r
                0x00000000000326d8                __librt_seekdir_r
 .opd           0x00000000000326f0       0x18 /usr/local/ps3dev/psl1ght/ppu/lib/librt.a(mkdir.o)
                0x00000000000326f0                __librt_mkdir_r
 .opd           0x0000000000032708       0x18 /usr/local/ps3dev/psl1ght/ppu/lib/librt.a(times.o)
                0x0000000000032708                __librt_times_r
 .opd           0x0000000000032720       0x18 /usr/local/ps3dev/psl1ght/ppu/lib/librt.a(umask.o)
                0x0000000000032720                __librt_umask_r
 .opd           0x0000000000032738       0x48 /usr/local/ps3dev/psl1ght/ppu/lib/librt.a(lv2errno.o)
                0x0000000000032738                lv2error
                0x0000000000032750                lv2errno
                0x0000000000032768                lv2errno_r
 .opd           0x0000000000032780       0x60 /usr/local/ps3dev/psl1ght/ppu/lib/librt.a(heap.o)
                0x0000000000032780                heapInit
                0x0000000000032798                heapAllocate
                0x00000000000327b0                heapAllocateAligned
                0x00000000000327c8                heapFree
 .opd           0x00000000000327e0       0x18 /usr/local/ps3dev/psl1ght/ppu/lib/librt.a(chmod.o)
                0x00000000000327e0                __librt_chmod_r
 .opd           0x00000000000327f8       0x18 /usr/local/ps3dev/psl1ght/ppu/lib/librt.a(rmdir.o)
                0x00000000000327f8                __librt_rmdir_r
 .opd           0x0000000000032810       0x18 /usr/local/ps3dev/psl1ght/ppu/lib/librt.a(isatty.o)
                0x0000000000032810                __librt_isatty_r
 .opd           0x0000000000032828       0x18 /usr/local/ps3dev/psl1ght/ppu/lib/librt.a(gettod.o)
                0x0000000000032828                __librt_gettod_r
 .opd           0x0000000000032840       0x18 /usr/local/ps3dev/psl1ght/ppu/lib/librt.a(settod.o)
                0x0000000000032840                __librt_settod_r
 .opd           0x0000000000032858      0xb28 /usr/local/ps3dev/psl1ght/ppu/lib/liblv2.a(sprx.o)
                0x0000000000032858                sysGetSystemTime
                0x0000000000032870                sysGetSystemSwVersion
                0x0000000000032888                sysGetTemperature
                0x00000000000328a0                sysGetRandomNumber
                0x00000000000328b8                sysGetRtcStatus
                0x00000000000328d0                sysBoardStorageRead
                0x00000000000328e8                sysBoardStorageWrite
                0x0000000000032900                sysProcessIsStack
                0x0000000000032918                sysProcessExit
                0x0000000000032930                sysProcessExitspawn
                0x0000000000032948                sysProcessExitSpawn2Ex
                0x0000000000032960                sysProcessExitSpawnWithLevel
                0x0000000000032978                sysProcessAtExitSpawn
                0x0000000000032990                sysProcess_At_ExitSpawn
                0x00000000000329a8                sysPrxRegisterLibrary
                0x00000000000329c0                sysPrxUnregisterLibrary
                0x00000000000329d8                sysPrxStartModule
                0x00000000000329f0                sysPrxStopModule
                0x0000000000032a08                sysPrxLoadModule
                0x0000000000032a20                sysPrxLoadModuleByFd
                0x0000000000032a38                sysPrxLoadModuleList
                0x0000000000032a50                sysPrxLoadModuleListOnMemcontainer
                0x0000000000032a68                sysPrxLoadModuleOnMemcontainer
                0x0000000000032a80                sysPrxLoadModuleOnMemcontainerByFd
                0x0000000000032a98                sysPrxGetModuleInfo
                0x0000000000032ab0                sysPrxGetModuleList
                0x0000000000032ac8                sysPrxGetModuleId
                0x0000000000032ae0                sysPrxGetModuleIdByAddress
                0x0000000000032af8                sysPrxGetModuleIdByName
                0x0000000000032b10                sysPrxUnloadModule
                0x0000000000032b28                sysPrxExitSpawnWithLevel
                0x0000000000032b40                sysThreadCreateEx
                0x0000000000032b58                sysThreadExit
                0x0000000000032b70                sysThreadGetId
                0x0000000000032b88                sysThreadOnce
                0x0000000000032ba0                sysThreadInitialzeTLS
                0x0000000000032bb8                sysThreadRegisterAtexit
                0x0000000000032bd0                sysThreadUnregisterAtexit
                0x0000000000032be8                sysInterruptThreadDisestablish
                0x0000000000032c00                sysLwMutexCreate
                0x0000000000032c18                sysLwMutexDestroy
                0x0000000000032c30                sysLwMutexLock
                0x0000000000032c48                sysLwMutexTryLock
                0x0000000000032c60                sysLwMutexUnlock
                0x0000000000032c78                sysLwCondCreate
                0x0000000000032c90                sysLwCondWait
                0x0000000000032ca8                sysLwCondSignal
                0x0000000000032cc0                sysLwCondSignalTo
                0x0000000000032cd8                sysLwCondSignalAll
                0x0000000000032cf0                sysLwCondDestroy
                0x0000000000032d08                sysSpinlockInitialize
                0x0000000000032d20                sysSpinlockLock
                0x0000000000032d38                sysSpinlockTryLock
                0x0000000000032d50                sysSpinlockUnlock
                0x0000000000032d68                sysWatchdogClear
                0x0000000000032d80                sysWatchdogStart
                0x0000000000032d98                sysWatchdogStop
                0x0000000000032db0                sysMalloc
                0x0000000000032dc8                sysMemalign
                0x0000000000032de0                sysMemchr
                0x0000000000032df8                sysMemcmp
                0x0000000000032e10                sysMemcpy
                0x0000000000032e28                sysMemmove
                0x0000000000032e40                sysMemset
                0x0000000000032e58                sysFree
                0x0000000000032e70                sysHeapAllocHeapMemory
                0x0000000000032e88                sysHeapCreateHeap
                0x0000000000032ea0                sysHeapDeleteHeap
                0x0000000000032eb8                sysHeapFree
                0x0000000000032ed0                sysHeapGetMallInfo
                0x0000000000032ee8                sysHeapGetTotalFreeSize
                0x0000000000032f00                sysHeapMalloc
                0x0000000000032f18                sysHeapMemalign
                0x0000000000032f30                sysHeapStats
                0x0000000000032f48                sysQsort
                0x0000000000032f60                sysMempoolCreate
                0x0000000000032f78                sysMempoolDestroy
                0x0000000000032f90                sysMempoolGetCount
                0x0000000000032fa8                sysMempoolAllocateBlock
                0x0000000000032fc0                sysMempoolTryAllocateBlock
                0x0000000000032fd8                sysMempoolFreeBlock
                0x0000000000032ff0                sysMMapperFreeMemory
                0x0000000000033008                sysMMapperMapMemory
                0x0000000000033020                sysMMapperUnmapMemory
                0x0000000000033038                sysMMapperAllocateMemory
                0x0000000000033050                sysMMapperAllocateMemoryFromContainer
                0x0000000000033068                sysStrlen
                0x0000000000033080                sysStrcpy
                0x0000000000033098                sysStrncpy
                0x00000000000330b0                sysStrcat
                0x00000000000330c8                sysStrncat
                0x00000000000330e0                sysStrchr
                0x00000000000330f8                sysStrrchr
                0x0000000000033110                sysStrcmp
                0x0000000000033128                sysStrncmp
                0x0000000000033140                sysStrncasecmp
                0x0000000000033158                sysToLower
                0x0000000000033170                sysToUpper
                0x0000000000033188                sysSpuElfGetSegments
                0x00000000000331a0                sysSpuElfGetInformation
                0x00000000000331b8                sysSpuRawLoad
                0x00000000000331d0                sysSpuRawImageLoad
                0x00000000000331e8                sysSpuImageClose
                0x0000000000033200                sysSpuImageImport
                0x0000000000033218                sysSpuPrintfAttachGroup
                0x0000000000033230                sysSpuPrintfAttachThread
                0x0000000000033248                sysSpuPrintfDetachGroup
                0x0000000000033260                sysSpuPrintfDetach_Tread
                0x0000000000033278                sysSpuPrintfFinalize
                0x0000000000033290                sysSpuPrintfInitialize
                0x00000000000332a8                sysConsoleGetc
                0x00000000000332c0                sysConsolePutc
                0x00000000000332d8                sysConsoleWrite
                0x00000000000332f0                sysPrintf
                0x0000000000033308                sysSprintf
                0x0000000000033320                sysSnprintf
                0x0000000000033338                sysVprintf
                0x0000000000033350                sysVsprintf
                0x0000000000033368                sysVsnprintf
 .opd           0x0000000000033380       0x30 /usr/local/ps3dev/ppu/lib/gcc/powerpc64-ps3-elf/7.2.0/../../../../powerpc64-ps3-elf/lib/libsysbase.a(sleep.o)
                0x0000000000033380                usleep
                0x0000000000033398                sleep
 .opd           0x00000000000333b0       0x18 /usr/local/ps3dev/ppu/lib/gcc/powerpc64-ps3-elf/7.2.0/../../../../powerpc64-ps3-elf/lib/libc.a(lib_a-calloc.o)
                0x00000000000333b0                calloc
 .opd           0x00000000000333c8       0x18 /usr/local/ps3dev/ppu/lib/gcc/powerpc64-ps3-elf/7.2.0/../../../../powerpc64-ps3-elf/lib/libc.a(lib_a-callocr.o)
                0x00000000000333c8                _calloc_r
 .opd           0x00000000000333e0       0x18 /usr/local/ps3dev/ppu/lib/gcc/powerpc64-ps3-elf/7.2.0/../../../../powerpc64-ps3-elf/lib/libc.a(lib_a-errno.o)
                0x00000000000333e0                __errno
 .opd           0x00000000000333f8       0x18 /usr/local/ps3dev/ppu/lib/gcc/powerpc64-ps3-elf/7.2.0/../../../../powerpc64-ps3-elf/lib/libc.a(lib_a-exit.o)
                0x00000000000333f8                exit
 .opd           0x0000000000033410       0x18 /usr/local/ps3dev/ppu/lib/gcc/powerpc64-ps3-elf/7.2.0/../../../../powerpc64-ps3-elf/lib/libc.a(lib_a-getreent.o)
                0x0000000000033410                __getreent
 .opd           0x0000000000033428       0x18 /usr/local/ps3dev/ppu/lib/gcc/powerpc64-ps3-elf/7.2.0/../../../../powerpc64-ps3-elf/lib/libc.a(lib_a-malign.o)
                0x0000000000033428                memalign
 .opd           0x0000000000033440       0x18 /usr/local/ps3dev/ppu/lib/gcc/powerpc64-ps3-elf/7.2.0/../../../../powerpc64-ps3-elf/lib/libc.a(lib_a-malignr.o)
                0x0000000000033440                _memalign_r
 .opd           0x0000000000033458       0x30 /usr/local/ps3dev/ppu/lib/gcc/powerpc64-ps3-elf/7.2.0/../../../../powerpc64-ps3-elf/lib/libc.a(lib_a-malloc.o)
                0x0000000000033458                malloc
                0x0000000000033470                free
 .opd           0x0000000000033488       0x18 /usr/local/ps3dev/ppu/lib/gcc/powerpc64-ps3-elf/7.2.0/../../../../powerpc64-ps3-elf/lib/libc.a(lib_a-mallocr.o)
                0x0000000000033488                _malloc_r
 .opd           0x00000000000334a0       0x18 /usr/local/ps3dev/ppu/lib/gcc/powerpc64-ps3-elf/7.2.0/../../../../powerpc64-ps3-elf/lib/libc.a(lib_a-memset.o)
                0x00000000000334a0                memset
 .opd           0x00000000000334b8       0x30 /usr/local/ps3dev/ppu/lib/gcc/powerpc64-ps3-elf/7.2.0/../../../../powerpc64-ps3-elf/lib/libc.a(lib_a-mlock.o)
                0x00000000000334b8                __malloc_lock
                0x00000000000334d0                __malloc_unlock
 .opd           0x00000000000334e8       0x30 /usr/local/ps3dev/ppu/lib/gcc/powerpc64-ps3-elf/7.2.0/../../../../powerpc64-ps3-elf/lib/libc.a(lib_a-sscanf.o)
                0x00000000000334e8                sscanf
                0x0000000000033500                _sscanf_r
 .opd           0x0000000000033518       0x78 /usr/local/ps3dev/ppu/lib/gcc/powerpc64-ps3-elf/7.2.0/../../../../powerpc64-ps3-elf/lib/libc.a(lib_a-stdio.o)
                0x0000000000033518                __sread
                0x0000000000033530                __seofread
                0x0000000000033548                __swrite
                0x0000000000033560                __sseek
                0x0000000000033578                __sclose
 .opd           0x0000000000033590       0x18 /usr/local/ps3dev/ppu/lib/gcc/powerpc64-ps3-elf/7.2.0/../../../../powerpc64-ps3-elf/lib/libc.a(lib_a-strcasecmp.o)
                0x0000000000033590                strcasecmp
 .opd           0x00000000000335a8       0x18 /usr/local/ps3dev/ppu/lib/gcc/powerpc64-ps3-elf/7.2.0/../../../../powerpc64-ps3-elf/lib/libc.a(lib_a-strlen.o)
                0x00000000000335a8                strlen
 .opd           0x00000000000335c0       0x18 /usr/local/ps3dev/ppu/lib/gcc/powerpc64-ps3-elf/7.2.0/../../../../powerpc64-ps3-elf/lib/libc.a(lib_a-strncpy.o)
                0x00000000000335c0                strncpy
 .opd           0x00000000000335d8       0x18 /usr/local/ps3dev/ppu/lib/gcc/powerpc64-ps3-elf/7.2.0/../../../../powerpc64-ps3-elf/lib/libc.a(lib_a-svfscanf.o)
                0x00000000000335d8                __ssvfscanf_r
 .opd           0x00000000000335f0       0x18 /usr/local/ps3dev/ppu/lib/gcc/powerpc64-ps3-elf/7.2.0/../../../../powerpc64-ps3-elf/lib/libc.a(lib_a-__call_atexit.o)
                0x00000000000335f0                __call_exitprocs
 .opd           0x0000000000033608       0x30 /usr/local/ps3dev/ppu/lib/gcc/powerpc64-ps3-elf/7.2.0/../../../../powerpc64-ps3-elf/lib/libc.a(lib_a-freer.o)
                0x0000000000033608                _malloc_trim_r
                0x0000000000033620                _free_r
 .opd           0x0000000000033638       0x18 /usr/local/ps3dev/ppu/lib/gcc/powerpc64-ps3-elf/7.2.0/../../../../powerpc64-ps3-elf/lib/libc.a(lib_a-iswspace.o)
                0x0000000000033638                iswspace
 .opd           0x0000000000033650       0xc0 /usr/local/ps3dev/ppu/lib/gcc/powerpc64-ps3-elf/7.2.0/../../../../powerpc64-ps3-elf/lib/libc.a(lib_a-locale.o)
                0x0000000000033650                _setlocale_r
                0x0000000000033668                __locale_charset
                0x0000000000033680                __locale_mb_cur_max
                0x0000000000033698                __locale_msgcharset
                0x00000000000336b0                __locale_cjk_lang
                0x00000000000336c8                _localeconv_r
                0x00000000000336e0                setlocale
                0x00000000000336f8                localeconv
 .opd           0x0000000000033710       0x78 /usr/local/ps3dev/ppu/lib/gcc/powerpc64-ps3-elf/7.2.0/../../../../powerpc64-ps3-elf/lib/libc.a(lib_a-lock_recursive.o)
                0x0000000000033710                __libc_lock_init_recursive
                0x0000000000033728                __libc_lock_close_recursive
                0x0000000000033740                __libc_lock_acquire_recursive
                0x0000000000033758                __libc_lock_try_acquire_recursive
                0x0000000000033770                __libc_lock_release_recursive
 .opd           0x0000000000033788       0x30 /usr/local/ps3dev/ppu/lib/gcc/powerpc64-ps3-elf/7.2.0/../../../../powerpc64-ps3-elf/lib/libc.a(lib_a-mbrtowc.o)
                0x0000000000033788                _mbrtowc_r
                0x00000000000337a0                mbrtowc
 .opd           0x00000000000337b8       0x30 /usr/local/ps3dev/ppu/lib/gcc/powerpc64-ps3-elf/7.2.0/../../../../powerpc64-ps3-elf/lib/libc.a(lib_a-mbtowc_r.o)
                0x00000000000337b8                __ascii_mbtowc
                0x00000000000337d0                _mbtowc_r
 .opd           0x00000000000337e8       0x18 /usr/local/ps3dev/ppu/lib/gcc/powerpc64-ps3-elf/7.2.0/../../../../powerpc64-ps3-elf/lib/libc.a(lib_a-s_fpclassify.o)
                0x00000000000337e8                __fpclassifyd
 .opd           0x0000000000033800       0x18 /usr/local/ps3dev/ppu/lib/gcc/powerpc64-ps3-elf/7.2.0/../../../../powerpc64-ps3-elf/lib/libc.a(lib_a-sccl.o)
                0x0000000000033800                __sccl
 .opd           0x0000000000033818       0x18 /usr/local/ps3dev/ppu/lib/gcc/powerpc64-ps3-elf/7.2.0/../../../../powerpc64-ps3-elf/lib/libc.a(lib_a-sf_nan.o)
                0x0000000000033818                nanf
 .opd           0x0000000000033830       0x30 /usr/local/ps3dev/ppu/lib/gcc/powerpc64-ps3-elf/7.2.0/../../../../powerpc64-ps3-elf/lib/libc.a(lib_a-sprintf.o)
                0x0000000000033830                _sprintf_r
                0x0000000000033848                sprintf
 .opd           0x0000000000033860       0x18 /usr/local/ps3dev/ppu/lib/gcc/powerpc64-ps3-elf/7.2.0/../../../../powerpc64-ps3-elf/lib/libc.a(lib_a-strcmp.o)
                0x0000000000033860                strcmp
 .opd           0x0000000000033878       0x48 /usr/local/ps3dev/ppu/lib/gcc/powerpc64-ps3-elf/7.2.0/../../../../powerpc64-ps3-elf/lib/libc.a(lib_a-strtod.o)
                0x0000000000033878                _strtod_r
                0x0000000000033890                strtod
                0x00000000000338a8                strtof
 .opd           0x00000000000338c0       0x30 /usr/local/ps3dev/ppu/lib/gcc/powerpc64-ps3-elf/7.2.0/../../../../powerpc64-ps3-elf/lib/libc.a(lib_a-strtol.o)
                0x00000000000338c0                _strtol_r
                0x00000000000338d8                strtol
 .opd           0x00000000000338f0       0x18 /usr/local/ps3dev/ppu/lib/gcc/powerpc64-ps3-elf/7.2.0/../../../../powerpc64-ps3-elf/lib/libc.a(lib_a-strtoll_r.o)
                0x00000000000338f0                _strtoll_r
 .opd           0x0000000000033908       0x30 /usr/local/ps3dev/ppu/lib/gcc/powerpc64-ps3-elf/7.2.0/../../../../powerpc64-ps3-elf/lib/libc.a(lib_a-strtoul.o)
                0x0000000000033908                _strtoul_r
                0x0000000000033920                strtoul
 .opd           0x0000000000033938       0x18 /usr/local/ps3dev/ppu/lib/gcc/powerpc64-ps3-elf/7.2.0/../../../../powerpc64-ps3-elf/lib/libc.a(lib_a-strtoull_r.o)
                0x0000000000033938                _strtoull_r
 .opd           0x0000000000033950       0x60 /usr/local/ps3dev/ppu/lib/gcc/powerpc64-ps3-elf/7.2.0/../../../../powerpc64-ps3-elf/lib/libc.a(lib_a-svfiscanf.o)
                0x0000000000033950                _sungetc_r
                0x0000000000033968                __ssrefill_r
                0x0000000000033980                _sfread_r
                0x0000000000033998                __ssvfiscanf_r
 .opd           0x00000000000339b0       0x18 /usr/local/ps3dev/ppu/lib/gcc/powerpc64-ps3-elf/7.2.0/../../../../powerpc64-ps3-elf/lib/libc.a(lib_a-svfprintf.o)
                0x00000000000339b0                _svfprintf_r
 .opd           0x00000000000339c8       0x48 /usr/local/ps3dev/ppu/lib/gcc/powerpc64-ps3-elf/7.2.0/../../../../powerpc64-ps3-elf/lib/libc.a(lib_a-ungetc.o)
                0x00000000000339c8                __submore
                0x00000000000339e0                _ungetc_r
                0x00000000000339f8                ungetc
 .opd           0x0000000000033a10       0x18 /usr/local/ps3dev/ppu/lib/gcc/powerpc64-ps3-elf/7.2.0/../../../../powerpc64-ps3-elf/lib/libc.a(lib_a-__atexit.o)
                0x0000000000033a10                __register_exitproc
 .opd           0x0000000000033a28       0x30 /usr/local/ps3dev/ppu/lib/gcc/powerpc64-ps3-elf/7.2.0/../../../../powerpc64-ps3-elf/lib/libc.a(lib_a-dtoa.o)
                0x0000000000033a40                _dtoa_r
 .opd           0x0000000000033a58       0x48 /usr/local/ps3dev/ppu/lib/gcc/powerpc64-ps3-elf/7.2.0/../../../../powerpc64-ps3-elf/lib/libc.a(lib_a-fflush.o)
                0x0000000000033a58                __sflush_r
                0x0000000000033a70                _fflush_r
                0x0000000000033a88                fflush
 .opd           0x0000000000033aa0      0x150 /usr/local/ps3dev/ppu/lib/gcc/powerpc64-ps3-elf/7.2.0/../../../../powerpc64-ps3-elf/lib/libc.a(lib_a-findfp.o)
                0x0000000000033aa0                _cleanup_r
                0x0000000000033b00                __sfmoreglue
                0x0000000000033b18                _cleanup
                0x0000000000033b30                __sinit
                0x0000000000033b48                __sfp
                0x0000000000033b60                __sfp_lock_acquire
                0x0000000000033b78                __sfp_lock_release
                0x0000000000033b90                __sinit_lock_acquire
                0x0000000000033ba8                __sinit_lock_release
                0x0000000000033bc0                __fp_lock_all
                0x0000000000033bd8                __fp_unlock_all
 .opd           0x0000000000033bf0       0x30 /usr/local/ps3dev/ppu/lib/gcc/powerpc64-ps3-elf/7.2.0/../../../../powerpc64-ps3-elf/lib/libc.a(lib_a-fwalk.o)
                0x0000000000033bf0                _fwalk
                0x0000000000033c08                _fwalk_reent
 .opd           0x0000000000033c20       0x48 /usr/local/ps3dev/ppu/lib/gcc/powerpc64-ps3-elf/7.2.0/../../../../powerpc64-ps3-elf/lib/libc.a(lib_a-gdtoa-gethex.o)
                0x0000000000033c38                __hexdig_init
                0x0000000000033c50                __gethex
 .opd           0x0000000000033c68       0x18 /usr/local/ps3dev/ppu/lib/gcc/powerpc64-ps3-elf/7.2.0/../../../../powerpc64-ps3-elf/lib/libc.a(lib_a-gdtoa-hexnan.o)
                0x0000000000033c68                __hexnan
 .opd           0x0000000000033c80       0x30 /usr/local/ps3dev/ppu/lib/gcc/powerpc64-ps3-elf/7.2.0/../../../../powerpc64-ps3-elf/lib/libc.a(lib_a-lock_internal.o)
                0x0000000000033c98                __libc_auto_lock_allocate
 .opd           0x0000000000033cb0       0x18 /usr/local/ps3dev/ppu/lib/gcc/powerpc64-ps3-elf/7.2.0/../../../../powerpc64-ps3-elf/lib/libc.a(lib_a-memchr.o)
                0x0000000000033cb0                memchr
 .opd           0x0000000000033cc8       0x18 /usr/local/ps3dev/ppu/lib/gcc/powerpc64-ps3-elf/7.2.0/../../../../powerpc64-ps3-elf/lib/libc.a(lib_a-memcpy.o)
                0x0000000000033cc8                memcpy
 .opd           0x0000000000033ce0      0x1c8 /usr/local/ps3dev/ppu/lib/gcc/powerpc64-ps3-elf/7.2.0/../../../../powerpc64-ps3-elf/lib/libc.a(lib_a-mprec.o)
                0x0000000000033ce0                _Balloc
                0x0000000000033cf8                _Bfree
                0x0000000000033d10                __multadd
                0x0000000000033d28                __s2b
                0x0000000000033d40                __hi0bits
                0x0000000000033d58                __lo0bits
                0x0000000000033d70                __i2b
                0x0000000000033d88                __multiply
                0x0000000000033da0                __pow5mult
                0x0000000000033db8                __lshift
                0x0000000000033dd0                __mcmp
                0x0000000000033de8                __mdiff
                0x0000000000033e00                __ulp
                0x0000000000033e18                __b2d
                0x0000000000033e30                __d2b
                0x0000000000033e48                __ratio
                0x0000000000033e60                _mprec_log10
                0x0000000000033e78                __copybits
                0x0000000000033e90                __any_on
 .opd           0x0000000000033ea8       0x18 /usr/local/ps3dev/ppu/lib/gcc/powerpc64-ps3-elf/7.2.0/../../../../powerpc64-ps3-elf/lib/libc.a(lib_a-reallocr.o)
                0x0000000000033ea8                _realloc_r
 .opd           0x0000000000033ec0       0x18 /usr/local/ps3dev/ppu/lib/gcc/powerpc64-ps3-elf/7.2.0/../../../../powerpc64-ps3-elf/lib/libc.a(lib_a-strncmp.o)
                0x0000000000033ec0                strncmp
 .opd           0x0000000000033ed8       0x30 /usr/local/ps3dev/ppu/lib/gcc/powerpc64-ps3-elf/7.2.0/../../../../powerpc64-ps3-elf/lib/libc.a(lib_a-svfiprintf.o)
                0x0000000000033ed8                __ssprint_r
                0x0000000000033ef0                _svfiprintf_r
 .opd           0x0000000000033f08       0x18 /usr/local/ps3dev/ppu/lib/gcc/powerpc64-ps3-elf/7.2.0/../../../../powerpc64-ps3-elf/lib/libc.a(lib_a-abort.o)
                0x0000000000033f08                abort
 .opd           0x0000000000033f20       0x30 /usr/local/ps3dev/ppu/lib/gcc/powerpc64-ps3-elf/7.2.0/../../../../powerpc64-ps3-elf/lib/libc.a(lib_a-fclose.o)
                0x0000000000033f20                _fclose_r
                0x0000000000033f38                fclose
 .opd           0x0000000000033f50       0x18 /usr/local/ps3dev/ppu/lib/gcc/powerpc64-ps3-elf/7.2.0/../../../../powerpc64-ps3-elf/lib/libc.a(lib_a-memmove.o)
                0x0000000000033f50                memmove
 .opd           0x0000000000033f68       0xd8 /usr/local/ps3dev/ppu/lib/gcc/powerpc64-ps3-elf/7.2.0/../../../../powerpc64-ps3-elf/lib/libc.a(lib_a-signal.o)
                0x0000000000033f80                _init_signal_r
                0x0000000000033f98                _signal_r
                0x0000000000033fb0                _raise_r
                0x0000000000033fc8                __sigtramp_r
                0x0000000000033fe0                raise
                0x0000000000033ff8                signal
                0x0000000000034010                _init_signal
                0x0000000000034028                __sigtramp
 .opd           0x0000000000034040       0x18 /usr/local/ps3dev/ppu/lib/gcc/powerpc64-ps3-elf/7.2.0/../../../../powerpc64-ps3-elf/lib/libsysbase.a(close.o)
                0x0000000000034040                _close_r
 .opd           0x0000000000034058       0x18 /usr/local/ps3dev/ppu/lib/gcc/powerpc64-ps3-elf/7.2.0/../../../../powerpc64-ps3-elf/lib/libsysbase.a(sbrk.o)
                0x0000000000034058                _sbrk_r
 .opd           0x0000000000034070       0x18 /usr/local/ps3dev/ppu/lib/gcc/powerpc64-ps3-elf/7.2.0/../../../../powerpc64-ps3-elf/lib/libsysbase.a(_exit.o)
                0x0000000000034070                _exit
 .opd           0x0000000000034088       0x18 /usr/local/ps3dev/ppu/lib/gcc/powerpc64-ps3-elf/7.2.0/../../../../powerpc64-ps3-elf/lib/libsysbase.a(lseek.o)
                0x0000000000034088                _lseek_r
 .opd           0x00000000000340a0       0x18 /usr/local/ps3dev/ppu/lib/gcc/powerpc64-ps3-elf/7.2.0/../../../../powerpc64-ps3-elf/lib/libsysbase.a(read.o)
                0x00000000000340a0                _read_r
 .opd           0x00000000000340b8       0x18 /usr/local/ps3dev/ppu/lib/gcc/powerpc64-ps3-elf/7.2.0/../../../../powerpc64-ps3-elf/lib/libsysbase.a(write.o)
                0x00000000000340b8                _write_r
 .opd           0x00000000000340d0       0x78 /usr/local/ps3dev/ppu/lib/gcc/powerpc64-ps3-elf/7.2.0/../../../../powerpc64-ps3-elf/lib/libsysbase.a(lock.o)
                0x00000000000340d0                sys_lwmutex_create
                0x00000000000340e8                sys_lwmutex_destroy
                0x0000000000034100                sys_lwmutex_lock
                0x0000000000034118                sys_lwmutex_trylock
                0x0000000000034130                sys_lwmutex_unlock
 .opd           0x0000000000034148       0x18 /usr/local/ps3dev/ppu/lib/gcc/powerpc64-ps3-elf/7.2.0/../../../../powerpc64-ps3-elf/lib/libsysbase.a(getpid.o)
                0x0000000000034148                _getpid_r
 .opd           0x0000000000034160       0x18 /usr/local/ps3dev/ppu/lib/gcc/powerpc64-ps3-elf/7.2.0/../../../../powerpc64-ps3-elf/lib/libsysbase.a(kill.o)
                0x0000000000034160                _kill_r
 .opd           0x0000000000034178       0x18 /usr/local/ps3dev/ppu/lib/gcc/powerpc64-ps3-elf/7.2.0/crtend.o

.branch_lt      0x0000000000034190        0x0
 *(.branch_lt)
 .branch_lt     0x0000000000034190        0x0 linker stubs

.got            0x0000000000034190      0x688
 *(.got .toc)
 .toc           0x0000000000034190       0x60 /usr/local/ps3dev/ppu/lib/gcc/powerpc64-ps3-elf/7.2.0/crtbegin.o
 .toc           0x00000000000341f0       0x28 /usr/local/ps3dev/psl1ght/ppu/lib/librt.a(sbrk.o)
 .toc           0x0000000000034218        0x8 /usr/local/ps3dev/ppu/lib/gcc/powerpc64-ps3-elf/7.2.0/crtend.o
 .toc           0x0000000000034220      0x118 /usr/local/ps3dev/ppu/lib/gcc/powerpc64-ps3-elf/7.2.0/../../../../powerpc64-ps3-elf/lib/lv2-crt0.o
 .toc           0x0000000000034338        0x8 main.o
 .toc           0x0000000000034340       0x10 rsxutil.o
 .toc           0x0000000000034350        0x8 /usr/local/ps3dev/psl1ght/ppu/lib/librsx.a(commands.o)
 .toc           0x0000000000034358       0x18 /usr/local/ps3dev/psl1ght/ppu/lib/librsx.a(mm.o)
 .toc           0x0000000000034370        0x8 /usr/local/ps3dev/psl1ght/ppu/lib/librt.a(open.o)
 .toc           0x0000000000034378        0x8 /usr/local/ps3dev/psl1ght/ppu/lib/librt.a(socket.o)
 .toc           0x0000000000034380        0x8 /usr/local/ps3dev/psl1ght/ppu/lib/librt.a(mkdir.o)
 .toc           0x0000000000034388        0x8 /usr/local/ps3dev/psl1ght/ppu/lib/librt.a(umask.o)
 .toc           0x0000000000034390        0x8 /usr/local/ps3dev/ppu/lib/gcc/powerpc64-ps3-elf/7.2.0/../../../../powerpc64-ps3-elf/lib/libsysbase.a(sleep.o)
 .toc           0x0000000000034398        0x8 /usr/local/ps3dev/ppu/lib/gcc/powerpc64-ps3-elf/7.2.0/../../../../powerpc64-ps3-elf/lib/libc.a(lib_a-exit.o)
 .toc           0x00000000000343a0        0x8 /usr/local/ps3dev/ppu/lib/gcc/powerpc64-ps3-elf/7.2.0/../../../../powerpc64-ps3-elf/lib/libc.a(lib_a-getreent.o)
 .toc           0x00000000000343a8       0x30 /usr/local/ps3dev/ppu/lib/gcc/powerpc64-ps3-elf/7.2.0/../../../../powerpc64-ps3-elf/lib/libc.a(lib_a-mallocr.o)
 .toc           0x00000000000343d8        0x8 /usr/local/ps3dev/ppu/lib/gcc/powerpc64-ps3-elf/7.2.0/../../../../powerpc64-ps3-elf/lib/libc.a(lib_a-mlock.o)
 .toc           0x00000000000343e0        0x8 /usr/local/ps3dev/ppu/lib/gcc/powerpc64-ps3-elf/7.2.0/../../../../powerpc64-ps3-elf/lib/libc.a(lib_a-sscanf.o)
 .toc           0x00000000000343e8        0x8 /usr/local/ps3dev/ppu/lib/gcc/powerpc64-ps3-elf/7.2.0/../../../../powerpc64-ps3-elf/lib/libc.a(lib_a-strcasecmp.o)
 .toc           0x00000000000343f0       0x40 /usr/local/ps3dev/ppu/lib/gcc/powerpc64-ps3-elf/7.2.0/../../../../powerpc64-ps3-elf/lib/libc.a(lib_a-svfscanf.o)
 .toc           0x0000000000034430       0x18 /usr/local/ps3dev/ppu/lib/gcc/powerpc64-ps3-elf/7.2.0/../../../../powerpc64-ps3-elf/lib/libc.a(lib_a-__call_atexit.o)
 .toc           0x0000000000034448       0x30 /usr/local/ps3dev/ppu/lib/gcc/powerpc64-ps3-elf/7.2.0/../../../../powerpc64-ps3-elf/lib/libc.a(lib_a-freer.o)
 .toc           0x0000000000034478        0x8 /usr/local/ps3dev/ppu/lib/gcc/powerpc64-ps3-elf/7.2.0/../../../../powerpc64-ps3-elf/lib/libc.a(lib_a-iswspace.o)
 .toc           0x0000000000034480       0x38 /usr/local/ps3dev/ppu/lib/gcc/powerpc64-ps3-elf/7.2.0/../../../../powerpc64-ps3-elf/lib/libc.a(lib_a-locale.o)
 .toc           0x00000000000344b8        0x8 /usr/local/ps3dev/ppu/lib/gcc/powerpc64-ps3-elf/7.2.0/../../../../powerpc64-ps3-elf/lib/libc.a(lib_a-lock_recursive.o)
 .toc           0x00000000000344c0       0x10 /usr/local/ps3dev/ppu/lib/gcc/powerpc64-ps3-elf/7.2.0/../../../../powerpc64-ps3-elf/lib/libc.a(lib_a-mbrtowc.o)
 .toc           0x00000000000344d0        0x8 /usr/local/ps3dev/ppu/lib/gcc/powerpc64-ps3-elf/7.2.0/../../../../powerpc64-ps3-elf/lib/libc.a(lib_a-mbtowc_r.o)
 .toc           0x00000000000344d8        0x8 /usr/local/ps3dev/ppu/lib/gcc/powerpc64-ps3-elf/7.2.0/../../../../powerpc64-ps3-elf/lib/libc.a(lib_a-sf_nan.o)
 .toc           0x00000000000344e0       0xa8 /usr/local/ps3dev/ppu/lib/gcc/powerpc64-ps3-elf/7.2.0/../../../../powerpc64-ps3-elf/lib/libc.a(lib_a-strtod.o)
 .toc           0x0000000000034588        0x8 /usr/local/ps3dev/ppu/lib/gcc/powerpc64-ps3-elf/7.2.0/../../../../powerpc64-ps3-elf/lib/libc.a(lib_a-strtol.o)
 .toc           0x0000000000034590        0x8 /usr/local/ps3dev/ppu/lib/gcc/powerpc64-ps3-elf/7.2.0/../../../../powerpc64-ps3-elf/lib/libc.a(lib_a-strtoll_r.o)
 .toc           0x0000000000034598        0x8 /usr/local/ps3dev/ppu/lib/gcc/powerpc64-ps3-elf/7.2.0/../../../../powerpc64-ps3-elf/lib/libc.a(lib_a-strtoul.o)
 .toc           0x00000000000345a0        0x8 /usr/local/ps3dev/ppu/lib/gcc/powerpc64-ps3-elf/7.2.0/../../../../powerpc64-ps3-elf/lib/libc.a(lib_a-strtoull_r.o)
 .toc           0x00000000000345a8       0x30 /usr/local/ps3dev/ppu/lib/gcc/powerpc64-ps3-elf/7.2.0/../../../../powerpc64-ps3-elf/lib/libc.a(lib_a-svfiscanf.o)
 .toc           0x00000000000345d8       0x68 /usr/local/ps3dev/ppu/lib/gcc/powerpc64-ps3-elf/7.2.0/../../../../powerpc64-ps3-elf/lib/libc.a(lib_a-svfprintf.o)
 .toc           0x0000000000034640       0x18 /usr/local/ps3dev/ppu/lib/gcc/powerpc64-ps3-elf/7.2.0/../../../../powerpc64-ps3-elf/lib/libc.a(lib_a-__atexit.o)
 .toc           0x0000000000034658       0x80 /usr/local/ps3dev/ppu/lib/gcc/powerpc64-ps3-elf/7.2.0/../../../../powerpc64-ps3-elf/lib/libc.a(lib_a-dtoa.o)
 .toc           0x00000000000346d8       0x10 /usr/local/ps3dev/ppu/lib/gcc/powerpc64-ps3-elf/7.2.0/../../../../powerpc64-ps3-elf/lib/libc.a(lib_a-fflush.o)
 .toc           0x00000000000346e8       0x58 /usr/local/ps3dev/ppu/lib/gcc/powerpc64-ps3-elf/7.2.0/../../../../powerpc64-ps3-elf/lib/libc.a(lib_a-findfp.o)
 .toc           0x0000000000034740       0x20 /usr/local/ps3dev/ppu/lib/gcc/powerpc64-ps3-elf/7.2.0/../../../../powerpc64-ps3-elf/lib/libc.a(lib_a-gdtoa-gethex.o)
 .toc           0x0000000000034760        0x8 /usr/local/ps3dev/ppu/lib/gcc/powerpc64-ps3-elf/7.2.0/../../../../powerpc64-ps3-elf/lib/libc.a(lib_a-gdtoa-hexnan.o)
 .toc           0x0000000000034768       0x10 /usr/local/ps3dev/ppu/lib/gcc/powerpc64-ps3-elf/7.2.0/../../../../powerpc64-ps3-elf/lib/libc.a(lib_a-lock_internal.o)
 .toc           0x0000000000034778       0x20 /usr/local/ps3dev/ppu/lib/gcc/powerpc64-ps3-elf/7.2.0/../../../../powerpc64-ps3-elf/lib/libc.a(lib_a-mprec.o)
 .toc           0x0000000000034798        0x8 /usr/local/ps3dev/ppu/lib/gcc/powerpc64-ps3-elf/7.2.0/../../../../powerpc64-ps3-elf/lib/libc.a(lib_a-reallocr.o)
 .toc           0x00000000000347a0       0x38 /usr/local/ps3dev/ppu/lib/gcc/powerpc64-ps3-elf/7.2.0/../../../../powerpc64-ps3-elf/lib/libc.a(lib_a-svfiprintf.o)
 .toc           0x00000000000347d8        0x8 /usr/local/ps3dev/ppu/lib/gcc/powerpc64-ps3-elf/7.2.0/../../../../powerpc64-ps3-elf/lib/libsysbase.a(close.o)
 .toc           0x00000000000347e0        0x8 /usr/local/ps3dev/ppu/lib/gcc/powerpc64-ps3-elf/7.2.0/../../../../powerpc64-ps3-elf/lib/libsysbase.a(sbrk.o)
 .toc           0x00000000000347e8        0x8 /usr/local/ps3dev/ppu/lib/gcc/powerpc64-ps3-elf/7.2.0/../../../../powerpc64-ps3-elf/lib/libsysbase.a(_exit.o)
 .toc           0x00000000000347f0        0x8 /usr/local/ps3dev/ppu/lib/gcc/powerpc64-ps3-elf/7.2.0/../../../../powerpc64-ps3-elf/lib/libsysbase.a(lseek.o)
 .toc           0x00000000000347f8        0x8 /usr/local/ps3dev/ppu/lib/gcc/powerpc64-ps3-elf/7.2.0/../../../../powerpc64-ps3-elf/lib/libsysbase.a(read.o)
 .toc           0x0000000000034800        0x8 /usr/local/ps3dev/ppu/lib/gcc/powerpc64-ps3-elf/7.2.0/../../../../powerpc64-ps3-elf/lib/libsysbase.a(write.o)
 .toc           0x0000000000034808        0x8 /usr/local/ps3dev/ppu/lib/gcc/powerpc64-ps3-elf/7.2.0/../../../../powerpc64-ps3-elf/lib/libsysbase.a(lock.o)
 .toc           0x0000000000034810        0x8 /usr/local/ps3dev/ppu/lib/gcc/powerpc64-ps3-elf/7.2.0/../../../../powerpc64-ps3-elf/lib/libsysbase.a(getpid.o)

.toc.sceStub
 *(.toc.sceStub)
 *(SORT(.toc.sceStub.*))

.tdata
 *(.tdata .tdata.* .gnu.linkonce.td.*)

.tbss           0x0000000000034818      0x780
 *(.tbss .tbss.* .gnu.linkonce.tb.*)
 .tbss.t_reentp
                0x0000000000034818        0x8 /usr/local/ps3dev/ppu/lib/gcc/powerpc64-ps3-elf/7.2.0/../../../../powerpc64-ps3-elf/lib/libc.a(lib_a-getreent.o)
 .tbss.t_reent  0x0000000000034820      0x778 /usr/local/ps3dev/ppu/lib/gcc/powerpc64-ps3-elf/7.2.0/../../../../powerpc64-ps3-elf/lib/libc.a(lib_a-getreent.o)
 *(.tcommon)
                0x0000000010000000                . = ALIGN (0x10000000)

.rodata         0x0000000010000000      0x468
 *(.rodata .rodata.* .gnu.linkonce.r.*)
 .rodata        0x0000000010000000       0x18 /usr/local/ps3dev/ppu/lib/gcc/powerpc64-ps3-elf/7.2.0/../../../../powerpc64-ps3-elf/lib/lv2-crt0.o
                0x0000000010000000                _start
 .rodata.drawFrame.cst4
                0x0000000010000018        0x4 main.o
 *fill*         0x000000001000001c        0x4 00
 .rodata.inet_aton.str1.8
                0x0000000010000020        0xc /usr/local/ps3dev/psl1ght/ppu/lib/librt.a(socket.o)
 *fill*         0x000000001000002c        0x4 00
 .rodata.__getreent.str1.8
                0x0000000010000030        0x2 /usr/local/ps3dev/ppu/lib/gcc/powerpc64-ps3-elf/7.2.0/../../../../powerpc64-ps3-elf/lib/libc.a(lib_a-getreent.o)
 *fill*         0x0000000010000032        0x6 00
 .rodata._global_impure_ptr
                0x0000000010000038        0x8 /usr/local/ps3dev/ppu/lib/gcc/powerpc64-ps3-elf/7.2.0/../../../../powerpc64-ps3-elf/lib/libc.a(lib_a-impure.o)
                0x0000000010000038                _global_impure_ptr
 .rodata.str1.8
                0x0000000000000000        0x2 /usr/local/ps3dev/ppu/lib/gcc/powerpc64-ps3-elf/7.2.0/../../../../powerpc64-ps3-elf/lib/libc.a(lib_a-impure.o)
 .rodata.__ssvfscanf_r.str1.8
                0x0000000010000040        0x5 /usr/local/ps3dev/ppu/lib/gcc/powerpc64-ps3-elf/7.2.0/../../../../powerpc64-ps3-elf/lib/libc.a(lib_a-svfscanf.o)
 *fill*         0x0000000010000045        0x1 00
 .rodata.basefix.4912
                0x0000000010000046       0x22 /usr/local/ps3dev/ppu/lib/gcc/powerpc64-ps3-elf/7.2.0/../../../../powerpc64-ps3-elf/lib/libc.a(lib_a-svfscanf.o)
 .rodata._ctype_
                0x0000000010000068      0x101 /usr/local/ps3dev/ppu/lib/gcc/powerpc64-ps3-elf/7.2.0/../../../../powerpc64-ps3-elf/lib/libc.a(lib_a-ctype_.o)
                0x0000000010000068                _ctype_
 *fill*         0x0000000010000169        0x7 00
 .rodata._setlocale_r.str1.8
                0x0000000010000170        0x6 /usr/local/ps3dev/ppu/lib/gcc/powerpc64-ps3-elf/7.2.0/../../../../powerpc64-ps3-elf/lib/libc.a(lib_a-locale.o)
                                         0x11 (size before relaxing)
 *fill*         0x0000000010000176        0x2 00
 .rodata.str1.8
                0x0000000010000178        0x2 /usr/local/ps3dev/ppu/lib/gcc/powerpc64-ps3-elf/7.2.0/../../../../powerpc64-ps3-elf/lib/libc.a(lib_a-locale.o)
 *fill*         0x000000001000017a        0x2 00
 .rodata.__libc_lock_attributes
                0x000000001000017c       0x10 /usr/local/ps3dev/ppu/lib/gcc/powerpc64-ps3-elf/7.2.0/../../../../powerpc64-ps3-elf/lib/libc.a(lib_a-lock_recursive.o)
 .rodata._mbrtowc_r.str1.8
                0x0000000000000000        0x1 /usr/local/ps3dev/ppu/lib/gcc/powerpc64-ps3-elf/7.2.0/../../../../powerpc64-ps3-elf/lib/libc.a(lib_a-mbrtowc.o)
 .rodata.nanf.cst4
                0x000000001000018c        0x4 /usr/local/ps3dev/ppu/lib/gcc/powerpc64-ps3-elf/7.2.0/../../../../powerpc64-ps3-elf/lib/libc.a(lib_a-sf_nan.o)
 .rodata._strtod_r.cst4
                0x0000000010000190       0x14 /usr/local/ps3dev/ppu/lib/gcc/powerpc64-ps3-elf/7.2.0/../../../../powerpc64-ps3-elf/lib/libc.a(lib_a-strtod.o)
 *fill*         0x00000000100001a4        0x4 00
 .rodata._strtod_r.cst8
                0x00000000100001a8       0x20 /usr/local/ps3dev/ppu/lib/gcc/powerpc64-ps3-elf/7.2.0/../../../../powerpc64-ps3-elf/lib/libc.a(lib_a-strtod.o)
 .rodata._strtod_r.str1.8
                0x00000000100001c8       0x13 /usr/local/ps3dev/ppu/lib/gcc/powerpc64-ps3-elf/7.2.0/../../../../powerpc64-ps3-elf/lib/libc.a(lib_a-strtod.o)
 *fill*         0x00000000100001db        0x5 00
 .rodata.tinytens
                0x00000000100001e0       0x28 /usr/local/ps3dev/ppu/lib/gcc/powerpc64-ps3-elf/7.2.0/../../../../powerpc64-ps3-elf/lib/libc.a(lib_a-strtod.o)
 .rodata.basefix.4412
                0x0000000010000208       0x22 /usr/local/ps3dev/ppu/lib/gcc/powerpc64-ps3-elf/7.2.0/../../../../powerpc64-ps3-elf/lib/libc.a(lib_a-svfiscanf.o)
 .rodata._svfprintf_r.cst4
                0x0000000000000000        0x4 /usr/local/ps3dev/ppu/lib/gcc/powerpc64-ps3-elf/7.2.0/../../../../powerpc64-ps3-elf/lib/libc.a(lib_a-svfprintf.o)
 *fill*         0x000000001000022a        0x6 00
 .rodata._svfprintf_r.str1.8
                0x0000000010000230       0x5a /usr/local/ps3dev/ppu/lib/gcc/powerpc64-ps3-elf/7.2.0/../../../../powerpc64-ps3-elf/lib/libc.a(lib_a-svfprintf.o)
 *fill*         0x000000001000028a        0x6 00
 .rodata.blanks.5000
                0x0000000010000290       0x10 /usr/local/ps3dev/ppu/lib/gcc/powerpc64-ps3-elf/7.2.0/../../../../powerpc64-ps3-elf/lib/libc.a(lib_a-svfprintf.o)
 .rodata.zeroes.5001
                0x00000000100002a0       0x10 /usr/local/ps3dev/ppu/lib/gcc/powerpc64-ps3-elf/7.2.0/../../../../powerpc64-ps3-elf/lib/libc.a(lib_a-svfprintf.o)
 .rodata._dtoa_r.cst4
                0x00000000100002b0       0x10 /usr/local/ps3dev/ppu/lib/gcc/powerpc64-ps3-elf/7.2.0/../../../../powerpc64-ps3-elf/lib/libc.a(lib_a-dtoa.o)
                                         0x1c (size before relaxing)
 .rodata._dtoa_r.cst8
                0x00000000100002c0       0x18 /usr/local/ps3dev/ppu/lib/gcc/powerpc64-ps3-elf/7.2.0/../../../../powerpc64-ps3-elf/lib/libc.a(lib_a-dtoa.o)
 .rodata._dtoa_r.str1.8
                0x00000000100002d8       0x14 /usr/local/ps3dev/ppu/lib/gcc/powerpc64-ps3-elf/7.2.0/../../../../powerpc64-ps3-elf/lib/libc.a(lib_a-dtoa.o)
                                         0x1a (size before relaxing)
 *fill*         0x00000000100002ec        0x4 00
 .rodata.str1.8
                0x00000000100002f0       0x20 /usr/local/ps3dev/ppu/lib/gcc/powerpc64-ps3-elf/7.2.0/../../../../powerpc64-ps3-elf/lib/libc.a(lib_a-gdtoa-gethex.o)
                                         0x1b (size before relaxing)
 .rodata.__libc_lock_attributes
                0x0000000010000310       0x10 /usr/local/ps3dev/ppu/lib/gcc/powerpc64-ps3-elf/7.2.0/../../../../powerpc64-ps3-elf/lib/libc.a(lib_a-lock_internal.o)
 .rodata.__mprec_bigtens
                0x0000000010000320       0x28 /usr/local/ps3dev/ppu/lib/gcc/powerpc64-ps3-elf/7.2.0/../../../../powerpc64-ps3-elf/lib/libc.a(lib_a-mprec.o)
                0x0000000010000320                __mprec_bigtens
 .rodata.__mprec_tens
                0x0000000010000348       0xc8 /usr/local/ps3dev/ppu/lib/gcc/powerpc64-ps3-elf/7.2.0/../../../../powerpc64-ps3-elf/lib/libc.a(lib_a-mprec.o)
                0x0000000010000348                __mprec_tens
 .rodata.__mprec_tinytens
                0x0000000010000410       0x28 /usr/local/ps3dev/ppu/lib/gcc/powerpc64-ps3-elf/7.2.0/../../../../powerpc64-ps3-elf/lib/libc.a(lib_a-mprec.o)
                0x0000000010000410                __mprec_tinytens
 .rodata._mprec_log10.cst4
                0x0000000000000000        0x8 /usr/local/ps3dev/ppu/lib/gcc/powerpc64-ps3-elf/7.2.0/../../../../powerpc64-ps3-elf/lib/libc.a(lib_a-mprec.o)
 .rodata.p05.3541
                0x0000000010000438        0xc /usr/local/ps3dev/ppu/lib/gcc/powerpc64-ps3-elf/7.2.0/../../../../powerpc64-ps3-elf/lib/libc.a(lib_a-mprec.o)
 .rodata._svfiprintf_r.str1.8
                0x0000000000000000       0x37 /usr/local/ps3dev/ppu/lib/gcc/powerpc64-ps3-elf/7.2.0/../../../../powerpc64-ps3-elf/lib/libc.a(lib_a-svfiprintf.o)
 *fill*         0x0000000010000444        0x4 00
 .rodata.blanks.4944
                0x0000000010000448       0x10 /usr/local/ps3dev/ppu/lib/gcc/powerpc64-ps3-elf/7.2.0/../../../../powerpc64-ps3-elf/lib/libc.a(lib_a-svfiprintf.o)
 .rodata.zeroes.4945
                0x0000000010000458       0x10 /usr/local/ps3dev/ppu/lib/gcc/powerpc64-ps3-elf/7.2.0/../../../../powerpc64-ps3-elf/lib/libc.a(lib_a-svfiprintf.o)

.rodata1
 *(.rodata1)

.spu_image
 *(.spu_image .spu_image.*)
                0x0000000010010000                . = ALIGN (0x10000)

.data           0x0000000010010000     0x1090
 *(.data .data.* .gnu.linkonce.d.*)
 .data          0x0000000010010000        0x0 /usr/local/ps3dev/ppu/lib/gcc/powerpc64-ps3-elf/7.2.0/../../../../powerpc64-ps3-elf/lib/lv2-crti.o
 .data          0x0000000010010000        0x0 /usr/local/ps3dev/ppu/lib/gcc/powerpc64-ps3-elf/7.2.0/crtbegin.o
 .data.__dso_handle
                0x0000000010010000        0x8 /usr/local/ps3dev/ppu/lib/gcc/powerpc64-ps3-elf/7.2.0/crtbegin.o
                0x0000000010010000                __dso_handle
 .data          0x0000000010010008        0x0 /usr/local/ps3dev/ppu/lib/gcc/powerpc64-ps3-elf/7.2.0/../../../../powerpc64-ps3-elf/lib/lv2-crt0.o
 .data          0x0000000010010008        0x0 /usr/local/ps3dev/ppu/lib/gcc/powerpc64-ps3-elf/7.2.0/../../../../powerpc64-ps3-elf/lib/lv2-sprx.o
 .data          0x0000000010010008        0x0 main.o
 .data          0x0000000010010008        0x0 rsxutil.o
 .data          0x0000000010010008        0x0 /usr/local/ps3dev/psl1ght/ppu/lib/libgcm_sys.a(sprx.o)
 .data          0x0000000010010008        0x0 /usr/local/ps3dev/psl1ght/ppu/lib/librsx.a(init.o)
 .data          0x0000000010010008        0x0 /usr/local/ps3dev/psl1ght/ppu/lib/librsx.a(buffer.o)
 .data          0x0000000010010008        0x0 /usr/local/ps3dev/psl1ght/ppu/lib/librsx.a(commands.o)
 .data          0x0000000010010008        0x0 /usr/local/ps3dev/psl1ght/ppu/lib/librsx.a(mm.o)
 .data          0x0000000010010008        0x0 /usr/local/ps3dev/psl1ght/ppu/lib/librsx.a(vertex_program.o)
 .data          0x0000000010010008        0x0 /usr/local/ps3dev/psl1ght/ppu/lib/librsx.a(fragment_program.o)
 .data          0x0000000010010008        0x0 /usr/local/ps3dev/psl1ght/ppu/lib/libsysutil.a(sprx.o)
 .data          0x0000000010010008        0x0 /usr/local/ps3dev/psl1ght/ppu/lib/libio.a(sprx.o)
 .data          0x0000000010010008        0x0 /usr/local/ps3dev/psl1ght/ppu/lib/librt.a(sbrk.o)
 .data          0x0000000010010008        0x0 /usr/local/ps3dev/psl1ght/ppu/lib/librt.a(exit.o)
 .data          0x0000000010010008        0x0 /usr/local/ps3dev/psl1ght/ppu/lib/librt.a(close.o)
 .data          0x0000000010010008        0x0 /usr/local/ps3dev/psl1ght/ppu/lib/librt.a(lseek.o)
 .data          0x0000000010010008        0x0 /usr/local/ps3dev/psl1ght/ppu/lib/librt.a(read.o)
 .data          0x0000000010010008        0x0 /usr/local/ps3dev/psl1ght/ppu/lib/librt.a(open.o)
 .data          0x0000000010010008        0x0 /usr/local/ps3dev/psl1ght/ppu/lib/librt.a(sleep.o)
 .data          0x0000000010010008        0x0 /usr/local/ps3dev/psl1ght/ppu/lib/librt.a(write.o)
 .data          0x0000000010010008        0x0 /usr/local/ps3dev/psl1ght/ppu/lib/librt.a(fstat.o)
 .data          0x0000000010010008        0x0 /usr/local/ps3dev/psl1ght/ppu/lib/librt.a(socket.o)
 .data          0x0000000010010008        0x0 /usr/local/ps3dev/psl1ght/ppu/lib/librt.a(lock.o)
 .data          0x0000000010010008        0x0 /usr/local/ps3dev/psl1ght/ppu/lib/librt.a(dirent.o)
 .data          0x0000000010010008        0x0 /usr/local/ps3dev/psl1ght/ppu/lib/librt.a(mkdir.o)
 .data          0x0000000010010008        0x0 /usr/local/ps3dev/psl1ght/ppu/lib/librt.a(times.o)
 .data          0x0000000010010008        0x0 /usr/local/ps3dev/psl1ght/ppu/lib/librt.a(umask.o)
 .data.g_umask  0x0000000010010008        0x4 /usr/local/ps3dev/psl1ght/ppu/lib/librt.a(umask.o)
                0x0000000010010008                g_umask
 .data          0x000000001001000c        0x0 /usr/local/ps3dev/psl1ght/ppu/lib/librt.a(lv2errno.o)
 .data          0x000000001001000c        0x0 /usr/local/ps3dev/psl1ght/ppu/lib/librt.a(heap.o)
 .data          0x000000001001000c        0x0 /usr/local/ps3dev/psl1ght/ppu/lib/librt.a(chmod.o)
 .data          0x000000001001000c        0x0 /usr/local/ps3dev/psl1ght/ppu/lib/librt.a(rmdir.o)
 .data          0x000000001001000c        0x0 /usr/local/ps3dev/psl1ght/ppu/lib/librt.a(isatty.o)
 .data          0x000000001001000c        0x0 /usr/local/ps3dev/psl1ght/ppu/lib/librt.a(gettod.o)
 .data          0x000000001001000c        0x0 /usr/local/ps3dev/psl1ght/ppu/lib/librt.a(settod.o)
 .data          0x000000001001000c        0x0 /usr/local/ps3dev/psl1ght/ppu/lib/liblv2.a(sprx.o)
 .data          0x000000001001000c        0x0 /usr/local/ps3dev/ppu/lib/gcc/powerpc64-ps3-elf/7.2.0/../../../../powerpc64-ps3-elf/lib/libsysbase.a(syscalls.o)
 .data          0x000000001001000c        0x0 /usr/local/ps3dev/ppu/lib/gcc/powerpc64-ps3-elf/7.2.0/../../../../powerpc64-ps3-elf/lib/libsysbase.a(sleep.o)
 .data          0x000000001001000c        0x0 /usr/local/ps3dev/ppu/lib/gcc/powerpc64-ps3-elf/7.2.0/../../../../powerpc64-ps3-elf/lib/libc.a(lib_a-calloc.o)
 .data          0x000000001001000c        0x0 /usr/local/ps3dev/ppu/lib/gcc/powerpc64-ps3-elf/7.2.0/../../../../powerpc64-ps3-elf/lib/libc.a(lib_a-callocr.o)
 .data          0x000000001001000c        0x0 /usr/local/ps3dev/ppu/lib/gcc/powerpc64-ps3-elf/7.2.0/../../../../powerpc64-ps3-elf/lib/libc.a(lib_a-errno.o)
 .data          0x000000001001000c        0x0 /usr/local/ps3dev/ppu/lib/gcc/powerpc64-ps3-elf/7.2.0/../../../../powerpc64-ps3-elf/lib/libc.a(lib_a-exit.o)
 .data          0x000000001001000c        0x0 /usr/local/ps3dev/ppu/lib/gcc/powerpc64-ps3-elf/7.2.0/../../../../powerpc64-ps3-elf/lib/libc.a(lib_a-getreent.o)
 .data          0x000000001001000c        0x0 /usr/local/ps3dev/ppu/lib/gcc/powerpc64-ps3-elf/7.2.0/../../../../powerpc64-ps3-elf/lib/libc.a(lib_a-impure.o)
 *fill*         0x000000001001000c        0x4 00
 .data._impure_ptr
                0x0000000010010010        0x8 /usr/local/ps3dev/ppu/lib/gcc/powerpc64-ps3-elf/7.2.0/../../../../powerpc64-ps3-elf/lib/libc.a(lib_a-impure.o)
                0x0000000010010010                _impure_ptr
 .data.impure_data
                0x0000000010010018      0x778 /usr/local/ps3dev/ppu/lib/gcc/powerpc64-ps3-elf/7.2.0/../../../../powerpc64-ps3-elf/lib/libc.a(lib_a-impure.o)
 .data          0x0000000010010790        0x0 /usr/local/ps3dev/ppu/lib/gcc/powerpc64-ps3-elf/7.2.0/../../../../powerpc64-ps3-elf/lib/libc.a(lib_a-malign.o)
 .data          0x0000000010010790        0x0 /usr/local/ps3dev/ppu/lib/gcc/powerpc64-ps3-elf/7.2.0/../../../../powerpc64-ps3-elf/lib/libc.a(lib_a-malignr.o)
 .data          0x0000000010010790        0x0 /usr/local/ps3dev/ppu/lib/gcc/powerpc64-ps3-elf/7.2.0/../../../../powerpc64-ps3-elf/lib/libc.a(lib_a-malloc.o)
 .data          0x0000000010010790        0x0 /usr/local/ps3dev/ppu/lib/gcc/powerpc64-ps3-elf/7.2.0/../../../../powerpc64-ps3-elf/lib/libc.a(lib_a-mallocr.o)
 .data.__malloc_av_
                0x0000000010010790      0x810 /usr/local/ps3dev/ppu/lib/gcc/powerpc64-ps3-elf/7.2.0/../../../../powerpc64-ps3-elf/lib/libc.a(lib_a-mallocr.o)
                0x0000000010010790                __malloc_av_
 .data.__malloc_sbrk_base
                0x0000000010010fa0        0x8 /usr/local/ps3dev/ppu/lib/gcc/powerpc64-ps3-elf/7.2.0/../../../../powerpc64-ps3-elf/lib/libc.a(lib_a-mallocr.o)
                0x0000000010010fa0                __malloc_sbrk_base
 .data.__malloc_trim_threshold
                0x0000000010010fa8        0x8 /usr/local/ps3dev/ppu/lib/gcc/powerpc64-ps3-elf/7.2.0/../../../../powerpc64-ps3-elf/lib/libc.a(lib_a-mallocr.o)
                0x0000000010010fa8                __malloc_trim_threshold
 .data          0x0000000010010fb0        0x0 /usr/local/ps3dev/ppu/lib/gcc/powerpc64-ps3-elf/7.2.0/../../../../powerpc64-ps3-elf/lib/libc.a(lib_a-memset.o)
 .data          0x0000000010010fb0        0x0 /usr/local/ps3dev/ppu/lib/gcc/powerpc64-ps3-elf/7.2.0/../../../../powerpc64-ps3-elf/lib/libc.a(lib_a-mlock.o)
 .data          0x0000000010010fb0        0x0 /usr/local/ps3dev/ppu/lib/gcc/powerpc64-ps3-elf/7.2.0/../../../../powerpc64-ps3-elf/lib/libc.a(lib_a-sscanf.o)
 .data          0x0000000010010fb0        0x0 /usr/local/ps3dev/ppu/lib/gcc/powerpc64-ps3-elf/7.2.0/../../../../powerpc64-ps3-elf/lib/libc.a(lib_a-stdio.o)
 .data          0x0000000010010fb0        0x0 /usr/local/ps3dev/ppu/lib/gcc/powerpc64-ps3-elf/7.2.0/../../../../powerpc64-ps3-elf/lib/libc.a(lib_a-strcasecmp.o)
 .data          0x0000000010010fb0        0x0 /usr/local/ps3dev/ppu/lib/gcc/powerpc64-ps3-elf/7.2.0/../../../../powerpc64-ps3-elf/lib/libc.a(lib_a-strlen.o)
 .data          0x0000000010010fb0        0x0 /usr/local/ps3dev/ppu/lib/gcc/powerpc64-ps3-elf/7.2.0/../../../../powerpc64-ps3-elf/lib/libc.a(lib_a-strncpy.o)
 .data          0x0000000010010fb0        0x0 /usr/local/ps3dev/ppu/lib/gcc/powerpc64-ps3-elf/7.2.0/../../../../powerpc64-ps3-elf/lib/libc.a(lib_a-svfscanf.o)
 .data          0x0000000010010fb0        0x0 /usr/local/ps3dev/ppu/lib/gcc/powerpc64-ps3-elf/7.2.0/../../../../powerpc64-ps3-elf/lib/libc.a(lib_a-__call_atexit.o)
 .data          0x0000000010010fb0        0x0 /usr/local/ps3dev/ppu/lib/gcc/powerpc64-ps3-elf/7.2.0/../../../../powerpc64-ps3-elf/lib/libc.a(lib_a-ctype_.o)
 .data.__ctype_ptr__
                0x0000000010010fb0        0x8 /usr/local/ps3dev/ppu/lib/gcc/powerpc64-ps3-elf/7.2.0/../../../../powerpc64-ps3-elf/lib/libc.a(lib_a-ctype_.o)
                0x0000000010010fb0                __ctype_ptr__
 .data          0x0000000010010fb8        0x0 /usr/local/ps3dev/ppu/lib/gcc/powerpc64-ps3-elf/7.2.0/../../../../powerpc64-ps3-elf/lib/libc.a(lib_a-freer.o)
 .data          0x0000000010010fb8        0x0 /usr/local/ps3dev/ppu/lib/gcc/powerpc64-ps3-elf/7.2.0/../../../../powerpc64-ps3-elf/lib/libc.a(lib_a-iswspace.o)
 .data          0x0000000010010fb8        0x0 /usr/local/ps3dev/ppu/lib/gcc/powerpc64-ps3-elf/7.2.0/../../../../powerpc64-ps3-elf/lib/libc.a(lib_a-locale.o)
 .data.__mb_cur_max
                0x0000000010010fb8        0x4 /usr/local/ps3dev/ppu/lib/gcc/powerpc64-ps3-elf/7.2.0/../../../../powerpc64-ps3-elf/lib/libc.a(lib_a-locale.o)
                0x0000000010010fb8                __mb_cur_max
 *fill*         0x0000000010010fbc        0x4 00
 .data.lc_ctype_charset
                0x0000000010010fc0       0x20 /usr/local/ps3dev/ppu/lib/gcc/powerpc64-ps3-elf/7.2.0/../../../../powerpc64-ps3-elf/lib/libc.a(lib_a-locale.o)
 .data.lc_message_charset
                0x0000000010010fe0       0x20 /usr/local/ps3dev/ppu/lib/gcc/powerpc64-ps3-elf/7.2.0/../../../../powerpc64-ps3-elf/lib/libc.a(lib_a-locale.o)
 .data.lconv    0x0000000010011000       0x60 /usr/local/ps3dev/ppu/lib/gcc/powerpc64-ps3-elf/7.2.0/../../../../powerpc64-ps3-elf/lib/libc.a(lib_a-locale.o)
 .data          0x0000000010011060        0x0 /usr/local/ps3dev/ppu/lib/gcc/powerpc64-ps3-elf/7.2.0/../../../../powerpc64-ps3-elf/lib/libc.a(lib_a-lock_recursive.o)
 .data          0x0000000010011060        0x0 /usr/local/ps3dev/ppu/lib/gcc/powerpc64-ps3-elf/7.2.0/../../../../powerpc64-ps3-elf/lib/libc.a(lib_a-mbrtowc.o)
 .data          0x0000000010011060        0x0 /usr/local/ps3dev/ppu/lib/gcc/powerpc64-ps3-elf/7.2.0/../../../../powerpc64-ps3-elf/lib/libc.a(lib_a-mbtowc_r.o)
 .data.__mbtowc
                0x0000000010011060        0x8 /usr/local/ps3dev/ppu/lib/gcc/powerpc64-ps3-elf/7.2.0/../../../../powerpc64-ps3-elf/lib/libc.a(lib_a-mbtowc_r.o)
                0x0000000010011060                __mbtowc
 .data          0x0000000010011068        0x0 /usr/local/ps3dev/ppu/lib/gcc/powerpc64-ps3-elf/7.2.0/../../../../powerpc64-ps3-elf/lib/libc.a(lib_a-s_fpclassify.o)
 .data          0x0000000010011068        0x0 /usr/local/ps3dev/ppu/lib/gcc/powerpc64-ps3-elf/7.2.0/../../../../powerpc64-ps3-elf/lib/libc.a(lib_a-sccl.o)
 .data          0x0000000010011068        0x0 /usr/local/ps3dev/ppu/lib/gcc/powerpc64-ps3-elf/7.2.0/../../../../powerpc64-ps3-elf/lib/libc.a(lib_a-sf_nan.o)
 .data          0x0000000010011068        0x0 /usr/local/ps3dev/ppu/lib/gcc/powerpc64-ps3-elf/7.2.0/../../../../powerpc64-ps3-elf/lib/libc.a(lib_a-sprintf.o)
 .data          0x0000000010011068        0x0 /usr/local/ps3dev/ppu/lib/gcc/powerpc64-ps3-elf/7.2.0/../../../../powerpc64-ps3-elf/lib/libc.a(lib_a-strcmp.o)
 .data          0x0000000010011068        0x0 /usr/local/ps3dev/ppu/lib/gcc/powerpc64-ps3-elf/7.2.0/../../../../powerpc64-ps3-elf/lib/libc.a(lib_a-strtod.o)
 .data.fpi.3501
                0x0000000010011068       0x14 /usr/local/ps3dev/ppu/lib/gcc/powerpc64-ps3-elf/7.2.0/../../../../powerpc64-ps3-elf/lib/libc.a(lib_a-strtod.o)
 .data.fpinan.3537
                0x000000001001107c       0x14 /usr/local/ps3dev/ppu/lib/gcc/powerpc64-ps3-elf/7.2.0/../../../../powerpc64-ps3-elf/lib/libc.a(lib_a-strtod.o)
 .data          0x0000000010011090        0x0 /usr/local/ps3dev/ppu/lib/gcc/powerpc64-ps3-elf/7.2.0/../../../../powerpc64-ps3-elf/lib/libc.a(lib_a-strtol.o)
 .data          0x0000000010011090        0x0 /usr/local/ps3dev/ppu/lib/gcc/powerpc64-ps3-elf/7.2.0/../../../../powerpc64-ps3-elf/lib/libc.a(lib_a-strtoll_r.o)
 .data          0x0000000010011090        0x0 /usr/local/ps3dev/ppu/lib/gcc/powerpc64-ps3-elf/7.2.0/../../../../powerpc64-ps3-elf/lib/libc.a(lib_a-strtoul.o)
 .data          0x0000000010011090        0x0 /usr/local/ps3dev/ppu/lib/gcc/powerpc64-ps3-elf/7.2.0/../../../../powerpc64-ps3-elf/lib/libc.a(lib_a-strtoull_r.o)
 .data          0x0000000010011090        0x0 /usr/local/ps3dev/ppu/lib/gcc/powerpc64-ps3-elf/7.2.0/../../../../powerpc64-ps3-elf/lib/libc.a(lib_a-svfiscanf.o)
 .data          0x0000000010011090        0x0 /usr/local/ps3dev/ppu/lib/gcc/powerpc64-ps3-elf/7.2.0/../../../../powerpc64-ps3-elf/lib/libc.a(lib_a-svfprintf.o)
 .data          0x0000000010011090        0x0 /usr/local/ps3dev/ppu/lib/gcc/powerpc64-ps3-elf/7.2.0/../../../../powerpc64-ps3-elf/lib/libc.a(lib_a-ungetc.o)
 .data          0x0000000010011090        0x0 /usr/local/ps3dev/ppu/lib/gcc/powerpc64-ps3-elf/7.2.0/../../../../powerpc64-ps3-elf/lib/libc.a(lib_a-__atexit.o)
 .data          0x0000000010011090        0x0 /usr/local/ps3dev/ppu/lib/gcc/powerpc64-ps3-elf/7.2.0/../../../../powerpc64-ps3-elf/lib/libc.a(lib_a-dtoa.o)
 .data          0x0000000010011090        0x0 /usr/local/ps3dev/ppu/lib/gcc/powerpc64-ps3-elf/7.2.0/../../../../powerpc64-ps3-elf/lib/libc.a(lib_a-fflush.o)
 .data          0x0000000010011090        0x0 /usr/local/ps3dev/ppu/lib/gcc/powerpc64-ps3-elf/7.2.0/../../../../powerpc64-ps3-elf/lib/libc.a(lib_a-findfp.o)
 .data          0x0000000010011090        0x0 /usr/local/ps3dev/ppu/lib/gcc/powerpc64-ps3-elf/7.2.0/../../../../powerpc64-ps3-elf/lib/libc.a(lib_a-fwalk.o)
 .data          0x0000000010011090        0x0 /usr/local/ps3dev/ppu/lib/gcc/powerpc64-ps3-elf/7.2.0/../../../../powerpc64-ps3-elf/lib/libc.a(lib_a-gdtoa-gethex.o)
 .data          0x0000000010011090        0x0 /usr/local/ps3dev/ppu/lib/gcc/powerpc64-ps3-elf/7.2.0/../../../../powerpc64-ps3-elf/lib/libc.a(lib_a-gdtoa-hexnan.o)
 .data          0x0000000010011090        0x0 /usr/local/ps3dev/ppu/lib/gcc/powerpc64-ps3-elf/7.2.0/../../../../powerpc64-ps3-elf/lib/libc.a(lib_a-lock_internal.o)
 .data          0x0000000010011090        0x0 /usr/local/ps3dev/ppu/lib/gcc/powerpc64-ps3-elf/7.2.0/../../../../powerpc64-ps3-elf/lib/libc.a(lib_a-memchr.o)
 .data          0x0000000010011090        0x0 /usr/local/ps3dev/ppu/lib/gcc/powerpc64-ps3-elf/7.2.0/../../../../powerpc64-ps3-elf/lib/libc.a(lib_a-memcpy.o)
 .data          0x0000000010011090        0x0 /usr/local/ps3dev/ppu/lib/gcc/powerpc64-ps3-elf/7.2.0/../../../../powerpc64-ps3-elf/lib/libc.a(lib_a-mprec.o)
 .data          0x0000000010011090        0x0 /usr/local/ps3dev/ppu/lib/gcc/powerpc64-ps3-elf/7.2.0/../../../../powerpc64-ps3-elf/lib/libc.a(lib_a-reallocr.o)
 .data          0x0000000010011090        0x0 /usr/local/ps3dev/ppu/lib/gcc/powerpc64-ps3-elf/7.2.0/../../../../powerpc64-ps3-elf/lib/libc.a(lib_a-strncmp.o)
 .data          0x0000000010011090        0x0 /usr/local/ps3dev/ppu/lib/gcc/powerpc64-ps3-elf/7.2.0/../../../../powerpc64-ps3-elf/lib/libc.a(lib_a-svfiprintf.o)
 .data          0x0000000010011090        0x0 /usr/local/ps3dev/ppu/lib/gcc/powerpc64-ps3-elf/7.2.0/../../../../powerpc64-ps3-elf/lib/libc.a(lib_a-abort.o)
 .data          0x0000000010011090        0x0 /usr/local/ps3dev/ppu/lib/gcc/powerpc64-ps3-elf/7.2.0/../../../../powerpc64-ps3-elf/lib/libc.a(lib_a-fclose.o)
 .data          0x0000000010011090        0x0 /usr/local/ps3dev/ppu/lib/gcc/powerpc64-ps3-elf/7.2.0/../../../../powerpc64-ps3-elf/lib/libc.a(lib_a-memmove.o)
 .data          0x0000000010011090        0x0 /usr/local/ps3dev/ppu/lib/gcc/powerpc64-ps3-elf/7.2.0/../../../../powerpc64-ps3-elf/lib/libc.a(lib_a-signal.o)
 .data          0x0000000010011090        0x0 /usr/local/ps3dev/ppu/lib/gcc/powerpc64-ps3-elf/7.2.0/../../../../powerpc64-ps3-elf/lib/libsysbase.a(close.o)
 .data          0x0000000010011090        0x0 /usr/local/ps3dev/ppu/lib/gcc/powerpc64-ps3-elf/7.2.0/../../../../powerpc64-ps3-elf/lib/libsysbase.a(sbrk.o)
 .data          0x0000000010011090        0x0 /usr/local/ps3dev/ppu/lib/gcc/powerpc64-ps3-elf/7.2.0/../../../../powerpc64-ps3-elf/lib/libsysbase.a(_exit.o)
 .data          0x0000000010011090        0x0 /usr/local/ps3dev/ppu/lib/gcc/powerpc64-ps3-elf/7.2.0/../../../../powerpc64-ps3-elf/lib/libsysbase.a(lseek.o)
 .data          0x0000000010011090        0x0 /usr/local/ps3dev/ppu/lib/gcc/powerpc64-ps3-elf/7.2.0/../../../../powerpc64-ps3-elf/lib/libsysbase.a(read.o)
 .data          0x0000000010011090        0x0 /usr/local/ps3dev/ppu/lib/gcc/powerpc64-ps3-elf/7.2.0/../../../../powerpc64-ps3-elf/lib/libsysbase.a(write.o)
 .data          0x0000000010011090        0x0 /usr/local/ps3dev/ppu/lib/gcc/powerpc64-ps3-elf/7.2.0/../../../../powerpc64-ps3-elf/lib/libsysbase.a(lock.o)
 .data          0x0000000010011090        0x0 /usr/local/ps3dev/ppu/lib/gcc/powerpc64-ps3-elf/7.2.0/../../../../powerpc64-ps3-elf/lib/libsysbase.a(getpid.o)
 .data          0x0000000010011090        0x0 /usr/local/ps3dev/ppu/lib/gcc/powerpc64-ps3-elf/7.2.0/../../../../powerpc64-ps3-elf/lib/libsysbase.a(kill.o)
 .data          0x0000000010011090        0x0 /usr/local/ps3dev/ppu/lib/gcc/powerpc64-ps3-elf/7.2.0/crtend.o
 .data          0x0000000010011090        0x0 /usr/local/ps3dev/ppu/lib/gcc/powerpc64-ps3-elf/7.2.0/../../../../powerpc64-ps3-elf/lib/lv2-crtn.o
 *(.gnu.linkonce.d.*personality*)

.tm_clone_table
                0x0000000010011090        0x0
 .tm_clone_table
                0x0000000010011090        0x0 /usr/local/ps3dev/ppu/lib/gcc/powerpc64-ps3-elf/7.2.0/crtbegin.o
 .tm_clone_table
                0x0000000010011090        0x0 /usr/local/ps3dev/ppu/lib/gcc/powerpc64-ps3-elf/7.2.0/crtend.o

.data1
 *(.data1)

.sdata
 *(.sdata .sdata.* .gnu.linkonce.s.*)
                0x0000000010011090                _edata = .
                0x0000000010011090                PROVIDE (edata, .)
                0x0000000010011090                __bss_start = .

.tocbss
 *(.tocbss)

.sbss           0x0000000010011090        0x0
                0x0000000010011090                PROVIDE (__sbss_start, .)
                0x0000000010011090                PROVIDE (___sbss_start, .)
 *(.dynsbss)
 *(.sbss .sbss.* .gnu.linkonce.sb.*)
 *(.scommon)
                0x0000000010011090                PROVIDE (__sbss_end, .)
                0x0000000010011090                PROVIDE (___sbss_end, .)

.plt
 *(.plt)

.bss            0x00000000100110c0     0x2470
 *(.dynbss)
 *(.bss .bss.* .gnu.linkonce.b.*)
 .bss           0x00000000100110c0        0x0 /usr/local/ps3dev/ppu/lib/gcc/powerpc64-ps3-elf/7.2.0/../../../../powerpc64-ps3-elf/lib/lv2-crti.o
 .bss           0x00000000100110c0        0x0 /usr/local/ps3dev/ppu/lib/gcc/powerpc64-ps3-elf/7.2.0/crtbegin.o
 .bss.completed.6040
                0x00000000100110c0        0x1 /usr/local/ps3dev/ppu/lib/gcc/powerpc64-ps3-elf/7.2.0/crtbegin.o
 *fill*         0x00000000100110c1        0x7 00
 .bss.dtor_idx.6042
                0x00000000100110c8        0x8 /usr/local/ps3dev/ppu/lib/gcc/powerpc64-ps3-elf/7.2.0/crtbegin.o
 .bss.object.6052
                0x00000000100110d0       0x30 /usr/local/ps3dev/ppu/lib/gcc/powerpc64-ps3-elf/7.2.0/crtbegin.o
 .bss           0x0000000010011100        0x8 /usr/local/ps3dev/ppu/lib/gcc/powerpc64-ps3-elf/7.2.0/../../../../powerpc64-ps3-elf/lib/lv2-crt0.o
                0x0000000010011100                __libc_stack_end
 .bss           0x0000000010011108        0x0 /usr/local/ps3dev/ppu/lib/gcc/powerpc64-ps3-elf/7.2.0/../../../../powerpc64-ps3-elf/lib/lv2-sprx.o
 .bss           0x0000000010011108        0x0 main.o
 .bss           0x0000000010011108        0x0 rsxutil.o
 .bss.depth_offset
                0x0000000010011108        0x4 rsxutil.o
 .bss.depth_pitch
                0x000000001001110c        0x4 rsxutil.o
 .bss           0x0000000010011110        0x0 /usr/local/ps3dev/psl1ght/ppu/lib/libgcm_sys.a(sprx.o)
 .bss           0x0000000010011110        0x0 /usr/local/ps3dev/psl1ght/ppu/lib/librsx.a(init.o)
 .bss           0x0000000010011110        0x0 /usr/local/ps3dev/psl1ght/ppu/lib/librsx.a(buffer.o)
 .bss           0x0000000010011110        0x0 /usr/local/ps3dev/psl1ght/ppu/lib/librsx.a(commands.o)
 .bss           0x0000000010011110        0x0 /usr/local/ps3dev/psl1ght/ppu/lib/librsx.a(mm.o)
 .bss.__rsx_config
                0x0000000010011110       0x18 /usr/local/ps3dev/psl1ght/ppu/lib/librsx.a(mm.o)
 .bss.__rsx_heap
                0x0000000010011128       0x48 /usr/local/ps3dev/psl1ght/ppu/lib/librsx.a(mm.o)
 .bss.__rsxheap_initialized
                0x0000000010011170        0x8 /usr/local/ps3dev/psl1ght/ppu/lib/librsx.a(mm.o)
 .bss           0x0000000010011178        0x0 /usr/local/ps3dev/psl1ght/ppu/lib/librsx.a(vertex_program.o)
 .bss           0x0000000010011178        0x0 /usr/local/ps3dev/psl1ght/ppu/lib/librsx.a(fragment_program.o)
 .bss           0x0000000010011178        0x0 /usr/local/ps3dev/psl1ght/ppu/lib/libsysutil.a(sprx.o)
 .bss           0x0000000010011178        0x0 /usr/local/ps3dev/psl1ght/ppu/lib/libio.a(sprx.o)
 .bss           0x0000000010011178        0x0 /usr/local/ps3dev/psl1ght/ppu/lib/librt.a(sbrk.o)
 .bss.__region_heap
                0x0000000010011178       0x48 /usr/local/ps3dev/psl1ght/ppu/lib/librt.a(sbrk.o)
 .bss.__region_list_entries
                0x00000000100111c0     0x2020 /usr/local/ps3dev/psl1ght/ppu/lib/librt.a(sbrk.o)
 .bss.__sbrk_baseaddr
                0x00000000100131e0        0x4 /usr/local/ps3dev/psl1ght/ppu/lib/librt.a(sbrk.o)
 *fill*         0x00000000100131e4        0x4 00
 .bss.__sbrk_curr_regionentry
                0x00000000100131e8        0x8 /usr/local/ps3dev/psl1ght/ppu/lib/librt.a(sbrk.o)
 .bss.__sbrk_spinlock
                0x00000000100131f0        0x4 /usr/local/ps3dev/psl1ght/ppu/lib/librt.a(sbrk.o)
 .bss           0x00000000100131f4        0x0 /usr/local/ps3dev/psl1ght/ppu/lib/librt.a(exit.o)
 .bss           0x00000000100131f4        0x0 /usr/local/ps3dev/psl1ght/ppu/lib/librt.a(close.o)
 .bss           0x00000000100131f4        0x0 /usr/local/ps3dev/psl1ght/ppu/lib/librt.a(lseek.o)
 .bss           0x00000000100131f4        0x0 /usr/local/ps3dev/psl1ght/ppu/lib/librt.a(read.o)
 .bss           0x00000000100131f4        0x0 /usr/local/ps3dev/psl1ght/ppu/lib/librt.a(open.o)
 .bss           0x00000000100131f4        0x0 /usr/local/ps3dev/psl1ght/ppu/lib/librt.a(sleep.o)
 .bss           0x00000000100131f4        0x0 /usr/local/ps3dev/psl1ght/ppu/lib/librt.a(write.o)
 .bss           0x00000000100131f4        0x0 /usr/local/ps3dev/psl1ght/ppu/lib/librt.a(fstat.o)
 .bss           0x00000000100131f4        0x0 /usr/local/ps3dev/psl1ght/ppu/lib/librt.a(socket.o)
 .bss           0x00000000100131f4        0x0 /usr/local/ps3dev/psl1ght/ppu/lib/librt.a(lock.o)
 .bss           0x00000000100131f4        0x0 /usr/local/ps3dev/psl1ght/ppu/lib/librt.a(dirent.o)
 .bss           0x00000000100131f4        0x0 /usr/local/ps3dev/psl1ght/ppu/lib/librt.a(mkdir.o)
 .bss           0x00000000100131f4        0x0 /usr/local/ps3dev/psl1ght/ppu/lib/librt.a(times.o)
 .bss           0x00000000100131f4        0x0 /usr/local/ps3dev/psl1ght/ppu/lib/librt.a(umask.o)
 .bss           0x00000000100131f4        0x0 /usr/local/ps3dev/psl1ght/ppu/lib/librt.a(lv2errno.o)
 .bss           0x00000000100131f4        0x0 /usr/local/ps3dev/psl1ght/ppu/lib/librt.a(heap.o)
 .bss           0x00000000100131f4        0x0 /usr/local/ps3dev/psl1ght/ppu/lib/librt.a(chmod.o)
 .bss           0x00000000100131f4        0x0 /usr/local/ps3dev/psl1ght/ppu/lib/librt.a(rmdir.o)
 .bss           0x00000000100131f4        0x0 /usr/local/ps3dev/psl1ght/ppu/lib/librt.a(isatty.o)
 .bss           0x00000000100131f4        0x0 /usr/local/ps3dev/psl1ght/ppu/lib/librt.a(gettod.o)
 .bss           0x00000000100131f4        0x0 /usr/local/ps3dev/psl1ght/ppu/lib/librt.a(settod.o)
 .bss           0x00000000100131f4        0x0 /usr/local/ps3dev/psl1ght/ppu/lib/liblv2.a(sprx.o)
 .bss           0x00000000100131f4        0x0 /usr/local/ps3dev/ppu/lib/gcc/powerpc64-ps3-elf/7.2.0/../../../../powerpc64-ps3-elf/lib/libsysbase.a(syscalls.o)
 *fill*         0x00000000100131f4        0x4 00
 .bss.__syscalls
                0x00000000100131f8      0x170 /usr/local/ps3dev/ppu/lib/gcc/powerpc64-ps3-elf/7.2.0/../../../../powerpc64-ps3-elf/lib/libsysbase.a(syscalls.o)
                0x00000000100131f8                __syscalls
 .bss           0x0000000010013368        0x0 /usr/local/ps3dev/ppu/lib/gcc/powerpc64-ps3-elf/7.2.0/../../../../powerpc64-ps3-elf/lib/libsysbase.a(sleep.o)
 .bss           0x0000000010013368        0x0 /usr/local/ps3dev/ppu/lib/gcc/powerpc64-ps3-elf/7.2.0/../../../../powerpc64-ps3-elf/lib/libc.a(lib_a-calloc.o)
 .bss           0x0000000010013368        0x0 /usr/local/ps3dev/ppu/lib/gcc/powerpc64-ps3-elf/7.2.0/../../../../powerpc64-ps3-elf/lib/libc.a(lib_a-callocr.o)
 .bss           0x0000000010013368        0x0 /usr/local/ps3dev/ppu/lib/gcc/powerpc64-ps3-elf/7.2.0/../../../../powerpc64-ps3-elf/lib/libc.a(lib_a-errno.o)
 .bss           0x0000000010013368        0x0 /usr/local/ps3dev/ppu/lib/gcc/powerpc64-ps3-elf/7.2.0/../../../../powerpc64-ps3-elf/lib/libc.a(lib_a-exit.o)
 .bss           0x0000000010013368        0x0 /usr/local/ps3dev/ppu/lib/gcc/powerpc64-ps3-elf/7.2.0/../../../../powerpc64-ps3-elf/lib/libc.a(lib_a-getreent.o)
 .bss           0x0000000010013368        0x0 /usr/local/ps3dev/ppu/lib/gcc/powerpc64-ps3-elf/7.2.0/../../../../powerpc64-ps3-elf/lib/libc.a(lib_a-impure.o)
 .bss           0x0000000010013368        0x0 /usr/local/ps3dev/ppu/lib/gcc/powerpc64-ps3-elf/7.2.0/../../../../powerpc64-ps3-elf/lib/libc.a(lib_a-malign.o)
 .bss           0x0000000010013368        0x0 /usr/local/ps3dev/ppu/lib/gcc/powerpc64-ps3-elf/7.2.0/../../../../powerpc64-ps3-elf/lib/libc.a(lib_a-malignr.o)
 .bss           0x0000000010013368        0x0 /usr/local/ps3dev/ppu/lib/gcc/powerpc64-ps3-elf/7.2.0/../../../../powerpc64-ps3-elf/lib/libc.a(lib_a-malloc.o)
 .bss           0x0000000010013368        0x0 /usr/local/ps3dev/ppu/lib/gcc/powerpc64-ps3-elf/7.2.0/../../../../powerpc64-ps3-elf/lib/libc.a(lib_a-mallocr.o)
 .bss.__malloc_current_mallinfo
                0x0000000010013368       0x28 /usr/local/ps3dev/ppu/lib/gcc/powerpc64-ps3-elf/7.2.0/../../../../powerpc64-ps3-elf/lib/libc.a(lib_a-mallocr.o)
                0x0000000010013368                __malloc_current_mallinfo
 .bss.__malloc_max_sbrked_mem
                0x0000000010013390        0x8 /usr/local/ps3dev/ppu/lib/gcc/powerpc64-ps3-elf/7.2.0/../../../../powerpc64-ps3-elf/lib/libc.a(lib_a-mallocr.o)
                0x0000000010013390                __malloc_max_sbrked_mem
 .bss.__malloc_max_total_mem
                0x0000000010013398        0x8 /usr/local/ps3dev/ppu/lib/gcc/powerpc64-ps3-elf/7.2.0/../../../../powerpc64-ps3-elf/lib/libc.a(lib_a-mallocr.o)
                0x0000000010013398                __malloc_max_total_mem
 .bss.__malloc_top_pad
                0x00000000100133a0        0x8 /usr/local/ps3dev/ppu/lib/gcc/powerpc64-ps3-elf/7.2.0/../../../../powerpc64-ps3-elf/lib/libc.a(lib_a-mallocr.o)
                0x00000000100133a0                __malloc_top_pad
 .bss           0x00000000100133a8        0x0 /usr/local/ps3dev/ppu/lib/gcc/powerpc64-ps3-elf/7.2.0/../../../../powerpc64-ps3-elf/lib/libc.a(lib_a-memset.o)
 .bss           0x00000000100133a8        0x0 /usr/local/ps3dev/ppu/lib/gcc/powerpc64-ps3-elf/7.2.0/../../../../powerpc64-ps3-elf/lib/libc.a(lib_a-mlock.o)
 .bss.__malloc_lock_object
                0x00000000100133a8       0x18 /usr/local/ps3dev/ppu/lib/gcc/powerpc64-ps3-elf/7.2.0/../../../../powerpc64-ps3-elf/lib/libc.a(lib_a-mlock.o)
 .bss           0x00000000100133c0        0x0 /usr/local/ps3dev/ppu/lib/gcc/powerpc64-ps3-elf/7.2.0/../../../../powerpc64-ps3-elf/lib/libc.a(lib_a-sscanf.o)
 .bss           0x00000000100133c0        0x0 /usr/local/ps3dev/ppu/lib/gcc/powerpc64-ps3-elf/7.2.0/../../../../powerpc64-ps3-elf/lib/libc.a(lib_a-stdio.o)
 .bss           0x00000000100133c0        0x0 /usr/local/ps3dev/ppu/lib/gcc/powerpc64-ps3-elf/7.2.0/../../../../powerpc64-ps3-elf/lib/libc.a(lib_a-strcasecmp.o)
 .bss           0x00000000100133c0        0x0 /usr/local/ps3dev/ppu/lib/gcc/powerpc64-ps3-elf/7.2.0/../../../../powerpc64-ps3-elf/lib/libc.a(lib_a-strlen.o)
 .bss           0x00000000100133c0        0x0 /usr/local/ps3dev/ppu/lib/gcc/powerpc64-ps3-elf/7.2.0/../../../../powerpc64-ps3-elf/lib/libc.a(lib_a-strncpy.o)
 .bss           0x00000000100133c0        0x0 /usr/local/ps3dev/ppu/lib/gcc/powerpc64-ps3-elf/7.2.0/../../../../powerpc64-ps3-elf/lib/libc.a(lib_a-svfscanf.o)
 .bss           0x00000000100133c0        0x0 /usr/local/ps3dev/ppu/lib/gcc/powerpc64-ps3-elf/7.2.0/../../../../powerpc64-ps3-elf/lib/libc.a(lib_a-__call_atexit.o)
 .bss           0x00000000100133c0        0x0 /usr/local/ps3dev/ppu/lib/gcc/powerpc64-ps3-elf/7.2.0/../../../../powerpc64-ps3-elf/lib/libc.a(lib_a-ctype_.o)
 .bss           0x00000000100133c0        0x0 /usr/local/ps3dev/ppu/lib/gcc/powerpc64-ps3-elf/7.2.0/../../../../powerpc64-ps3-elf/lib/libc.a(lib_a-freer.o)
 .bss           0x00000000100133c0        0x0 /usr/local/ps3dev/ppu/lib/gcc/powerpc64-ps3-elf/7.2.0/../../../../powerpc64-ps3-elf/lib/libc.a(lib_a-iswspace.o)
 .bss           0x00000000100133c0        0x0 /usr/local/ps3dev/ppu/lib/gcc/powerpc64-ps3-elf/7.2.0/../../../../powerpc64-ps3-elf/lib/libc.a(lib_a-locale.o)
 .bss._PathLocale
                0x00000000100133c0        0x8 /usr/local/ps3dev/ppu/lib/gcc/powerpc64-ps3-elf/7.2.0/../../../../powerpc64-ps3-elf/lib/libc.a(lib_a-locale.o)
                0x00000000100133c0                _PathLocale
 .bss.__mlocale_changed
                0x00000000100133c8        0x4 /usr/local/ps3dev/ppu/lib/gcc/powerpc64-ps3-elf/7.2.0/../../../../powerpc64-ps3-elf/lib/libc.a(lib_a-locale.o)
                0x00000000100133c8                __mlocale_changed
 .bss.__nlocale_changed
                0x00000000100133cc        0x4 /usr/local/ps3dev/ppu/lib/gcc/powerpc64-ps3-elf/7.2.0/../../../../powerpc64-ps3-elf/lib/libc.a(lib_a-locale.o)
                0x00000000100133cc                __nlocale_changed
 .bss           0x00000000100133d0        0x0 /usr/local/ps3dev/ppu/lib/gcc/powerpc64-ps3-elf/7.2.0/../../../../powerpc64-ps3-elf/lib/libc.a(lib_a-lock_recursive.o)
 .bss           0x00000000100133d0        0x0 /usr/local/ps3dev/ppu/lib/gcc/powerpc64-ps3-elf/7.2.0/../../../../powerpc64-ps3-elf/lib/libc.a(lib_a-mbrtowc.o)
 .bss           0x00000000100133d0        0x0 /usr/local/ps3dev/ppu/lib/gcc/powerpc64-ps3-elf/7.2.0/../../../../powerpc64-ps3-elf/lib/libc.a(lib_a-mbtowc_r.o)
 .bss           0x00000000100133d0        0x0 /usr/local/ps3dev/ppu/lib/gcc/powerpc64-ps3-elf/7.2.0/../../../../powerpc64-ps3-elf/lib/libc.a(lib_a-s_fpclassify.o)
 .bss           0x00000000100133d0        0x0 /usr/local/ps3dev/ppu/lib/gcc/powerpc64-ps3-elf/7.2.0/../../../../powerpc64-ps3-elf/lib/libc.a(lib_a-sccl.o)
 .bss           0x00000000100133d0        0x0 /usr/local/ps3dev/ppu/lib/gcc/powerpc64-ps3-elf/7.2.0/../../../../powerpc64-ps3-elf/lib/libc.a(lib_a-sf_nan.o)
 .bss           0x00000000100133d0        0x0 /usr/local/ps3dev/ppu/lib/gcc/powerpc64-ps3-elf/7.2.0/../../../../powerpc64-ps3-elf/lib/libc.a(lib_a-sprintf.o)
 .bss           0x00000000100133d0        0x0 /usr/local/ps3dev/ppu/lib/gcc/powerpc64-ps3-elf/7.2.0/../../../../powerpc64-ps3-elf/lib/libc.a(lib_a-strcmp.o)
 .bss           0x00000000100133d0        0x0 /usr/local/ps3dev/ppu/lib/gcc/powerpc64-ps3-elf/7.2.0/../../../../powerpc64-ps3-elf/lib/libc.a(lib_a-strtod.o)
 .bss           0x00000000100133d0        0x0 /usr/local/ps3dev/ppu/lib/gcc/powerpc64-ps3-elf/7.2.0/../../../../powerpc64-ps3-elf/lib/libc.a(lib_a-strtol.o)
 .bss           0x00000000100133d0        0x0 /usr/local/ps3dev/ppu/lib/gcc/powerpc64-ps3-elf/7.2.0/../../../../powerpc64-ps3-elf/lib/libc.a(lib_a-strtoll_r.o)
 .bss           0x00000000100133d0        0x0 /usr/local/ps3dev/ppu/lib/gcc/powerpc64-ps3-elf/7.2.0/../../../../powerpc64-ps3-elf/lib/libc.a(lib_a-strtoul.o)
 .bss           0x00000000100133d0        0x0 /usr/local/ps3dev/ppu/lib/gcc/powerpc64-ps3-elf/7.2.0/../../../../powerpc64-ps3-elf/lib/libc.a(lib_a-strtoull_r.o)
 .bss           0x00000000100133d0        0x0 /usr/local/ps3dev/ppu/lib/gcc/powerpc64-ps3-elf/7.2.0/../../../../powerpc64-ps3-elf/lib/libc.a(lib_a-svfiscanf.o)
 .bss           0x00000000100133d0        0x0 /usr/local/ps3dev/ppu/lib/gcc/powerpc64-ps3-elf/7.2.0/../../../../powerpc64-ps3-elf/lib/libc.a(lib_a-svfprintf.o)
 .bss           0x00000000100133d0        0x0 /usr/local/ps3dev/ppu/lib/gcc/powerpc64-ps3-elf/7.2.0/../../../../powerpc64-ps3-elf/lib/libc.a(lib_a-ungetc.o)
 .bss           0x00000000100133d0        0x0 /usr/local/ps3dev/ppu/lib/gcc/powerpc64-ps3-elf/7.2.0/../../../../powerpc64-ps3-elf/lib/libc.a(lib_a-__atexit.o)
 .bss.__atexit_lock
                0x00000000100133d0       0x18 /usr/local/ps3dev/ppu/lib/gcc/powerpc64-ps3-elf/7.2.0/../../../../powerpc64-ps3-elf/lib/libc.a(lib_a-__atexit.o)
                0x00000000100133d0                __atexit_lock
 .bss           0x00000000100133e8        0x0 /usr/local/ps3dev/ppu/lib/gcc/powerpc64-ps3-elf/7.2.0/../../../../powerpc64-ps3-elf/lib/libc.a(lib_a-dtoa.o)
 .bss           0x00000000100133e8        0x0 /usr/local/ps3dev/ppu/lib/gcc/powerpc64-ps3-elf/7.2.0/../../../../powerpc64-ps3-elf/lib/libc.a(lib_a-fflush.o)
 .bss           0x00000000100133e8        0x0 /usr/local/ps3dev/ppu/lib/gcc/powerpc64-ps3-elf/7.2.0/../../../../powerpc64-ps3-elf/lib/libc.a(lib_a-findfp.o)
 .bss.__sfp_lock
                0x00000000100133e8       0x18 /usr/local/ps3dev/ppu/lib/gcc/powerpc64-ps3-elf/7.2.0/../../../../powerpc64-ps3-elf/lib/libc.a(lib_a-findfp.o)
 .bss.__sinit_lock
                0x0000000010013400       0x18 /usr/local/ps3dev/ppu/lib/gcc/powerpc64-ps3-elf/7.2.0/../../../../powerpc64-ps3-elf/lib/libc.a(lib_a-findfp.o)
 .bss           0x0000000010013418        0x0 /usr/local/ps3dev/ppu/lib/gcc/powerpc64-ps3-elf/7.2.0/../../../../powerpc64-ps3-elf/lib/libc.a(lib_a-fwalk.o)
 .bss           0x0000000010013418        0x0 /usr/local/ps3dev/ppu/lib/gcc/powerpc64-ps3-elf/7.2.0/../../../../powerpc64-ps3-elf/lib/libc.a(lib_a-gdtoa-gethex.o)
 .bss           0x0000000010013418        0x0 /usr/local/ps3dev/ppu/lib/gcc/powerpc64-ps3-elf/7.2.0/../../../../powerpc64-ps3-elf/lib/libc.a(lib_a-gdtoa-hexnan.o)
 .bss           0x0000000010013418        0x0 /usr/local/ps3dev/ppu/lib/gcc/powerpc64-ps3-elf/7.2.0/../../../../powerpc64-ps3-elf/lib/libc.a(lib_a-lock_internal.o)
 .bss.metaLock  0x0000000010013418       0x18 /usr/local/ps3dev/ppu/lib/gcc/powerpc64-ps3-elf/7.2.0/../../../../powerpc64-ps3-elf/lib/libc.a(lib_a-lock_internal.o)
 .bss           0x0000000010013430        0x0 /usr/local/ps3dev/ppu/lib/gcc/powerpc64-ps3-elf/7.2.0/../../../../powerpc64-ps3-elf/lib/libc.a(lib_a-memchr.o)
 .bss           0x0000000010013430        0x0 /usr/local/ps3dev/ppu/lib/gcc/powerpc64-ps3-elf/7.2.0/../../../../powerpc64-ps3-elf/lib/libc.a(lib_a-memcpy.o)
 .bss           0x0000000010013430        0x0 /usr/local/ps3dev/ppu/lib/gcc/powerpc64-ps3-elf/7.2.0/../../../../powerpc64-ps3-elf/lib/libc.a(lib_a-mprec.o)
 .bss           0x0000000010013430        0x0 /usr/local/ps3dev/ppu/lib/gcc/powerpc64-ps3-elf/7.2.0/../../../../powerpc64-ps3-elf/lib/libc.a(lib_a-reallocr.o)
 .bss           0x0000000010013430        0x0 /usr/local/ps3dev/ppu/lib/gcc/powerpc64-ps3-elf/7.2.0/../../../../powerpc64-ps3-elf/lib/libc.a(lib_a-strncmp.o)
 .bss           0x0000000010013430        0x0 /usr/local/ps3dev/ppu/lib/gcc/powerpc64-ps3-elf/7.2.0/../../../../powerpc64-ps3-elf/lib/libc.a(lib_a-svfiprintf.o)
 .bss           0x0000000010013430        0x0 /usr/local/ps3dev/ppu/lib/gcc/powerpc64-ps3-elf/7.2.0/../../../../powerpc64-ps3-elf/lib/libc.a(lib_a-abort.o)
 .bss           0x0000000010013430        0x0 /usr/local/ps3dev/ppu/lib/gcc/powerpc64-ps3-elf/7.2.0/../../../../powerpc64-ps3-elf/lib/libc.a(lib_a-fclose.o)
 .bss           0x0000000010013430        0x0 /usr/local/ps3dev/ppu/lib/gcc/powerpc64-ps3-elf/7.2.0/../../../../powerpc64-ps3-elf/lib/libc.a(lib_a-memmove.o)
 .bss           0x0000000010013430        0x0 /usr/local/ps3dev/ppu/lib/gcc/powerpc64-ps3-elf/7.2.0/../../../../powerpc64-ps3-elf/lib/libc.a(lib_a-signal.o)
 .bss           0x0000000010013430        0x0 /usr/local/ps3dev/ppu/lib/gcc/powerpc64-ps3-elf/7.2.0/../../../../powerpc64-ps3-elf/lib/libsysbase.a(close.o)
 .bss           0x0000000010013430        0x0 /usr/local/ps3dev/ppu/lib/gcc/powerpc64-ps3-elf/7.2.0/../../../../powerpc64-ps3-elf/lib/libsysbase.a(sbrk.o)
 .bss           0x0000000010013430        0x0 /usr/local/ps3dev/ppu/lib/gcc/powerpc64-ps3-elf/7.2.0/../../../../powerpc64-ps3-elf/lib/libsysbase.a(_exit.o)
 .bss           0x0000000010013430        0x0 /usr/local/ps3dev/ppu/lib/gcc/powerpc64-ps3-elf/7.2.0/../../../../powerpc64-ps3-elf/lib/libsysbase.a(lseek.o)
 .bss           0x0000000010013430        0x0 /usr/local/ps3dev/ppu/lib/gcc/powerpc64-ps3-elf/7.2.0/../../../../powerpc64-ps3-elf/lib/libsysbase.a(read.o)
 .bss           0x0000000010013430        0x0 /usr/local/ps3dev/ppu/lib/gcc/powerpc64-ps3-elf/7.2.0/../../../../powerpc64-ps3-elf/lib/libsysbase.a(write.o)
 .bss           0x0000000010013430        0x0 /usr/local/ps3dev/ppu/lib/gcc/powerpc64-ps3-elf/7.2.0/../../../../powerpc64-ps3-elf/lib/libsysbase.a(lock.o)
 .bss           0x0000000010013430        0x0 /usr/local/ps3dev/ppu/lib/gcc/powerpc64-ps3-elf/7.2.0/../../../../powerpc64-ps3-elf/lib/libsysbase.a(getpid.o)
 .bss           0x0000000010013430        0x0 /usr/local/ps3dev/ppu/lib/gcc/powerpc64-ps3-elf/7.2.0/../../../../powerpc64-ps3-elf/lib/libsysbase.a(kill.o)
 .bss           0x0000000010013430        0x0 /usr/local/ps3dev/ppu/lib/gcc/powerpc64-ps3-elf/7.2.0/crtend.o
 .bss           0x0000000010013430        0x0 /usr/local/ps3dev/ppu/lib/gcc/powerpc64-ps3-elf/7.2.0/../../../../powerpc64-ps3-elf/lib/lv2-crtn.o
 *(COMMON)
 COMMON         0x0000000010013430      0x100 /usr/local/ps3dev/ppu/lib/gcc/powerpc64-ps3-elf/7.2.0/../../../../powerpc64-ps3-elf/lib/libc.a(lib_a-gdtoa-gethex.o)
                0x0000000010013430                __hexdig
                0x0000000010013530                . = ALIGN (0x8)

.iplt           0x0000000010013530        0x0
 .iplt          0x0000000000000000        0x0 linker stubs
                0x0000000020000000                . = ALIGN (0x10000000)

.rsx_image
 *(.rsx_*)
                0x0000000020000000                _end = .
                0x0000000020000000                __end = .
                0x0000000020000000                PROVIDE (end, .)
                0x0000000020000000                . = ALIGN (0x8)

.stab
 *(.stab)

.stabstr
 *(.stabstr)

.stab.excl
 *(.stab.excl)

.stab.exclstr
 *(.stab.exclstr)

.stab.index
 *(.stab.index)

.stab.indexstr
 *(.stab.indexstr)

.comment        0x0000000000000000       0x11
 *(.comment)
 .comment       0x0000000000000000       0x11 /usr/local/ps3dev/ppu/lib/gcc/powerpc64-ps3-elf/7.2.0/crtbegin.o
                                         0x12 (size before relaxing)
 .comment       0x0000000000000000       0x12 /usr/local/ps3dev/ppu/lib/gcc/powerpc64-ps3-elf/7.2.0/../../../../powerpc64-ps3-elf/lib/lv2-crt0.o
 .comment       0x0000000000000000       0x12 main.o
 .comment       0x0000000000000000       0x12 rsxutil.o
 .comment       0x0000000000000000       0x12 /usr/local/ps3dev/psl1ght/ppu/lib/libgcm_sys.a(sprx.o)
 .comment       0x0000000000000000       0x12 /usr/local/ps3dev/psl1ght/ppu/lib/librsx.a(init.o)
 .comment       0x0000000000000000       0x12 /usr/local/ps3dev/psl1ght/ppu/lib/librsx.a(buffer.o)
 .comment       0x0000000000000000       0x12 /usr/local/ps3dev/psl1ght/ppu/lib/librsx.a(commands.o)
 .comment       0x0000000000000000       0x12 /usr/local/ps3dev/psl1ght/ppu/lib/librsx.a(mm.o)
 .comment       0x0000000000000000       0x12 /usr/local/ps3dev/psl1ght/ppu/lib/librsx.a(vertex_program.o)
 .comment       0x0000000000000000       0x12 /usr/local/ps3dev/psl1ght/ppu/lib/librsx.a(fragment_program.o)
 .comment       0x0000000000000000       0x12 /usr/local/ps3dev/psl1ght/ppu/lib/libsysutil.a(sprx.o)
 .comment       0x0000000000000000       0x12 /usr/local/ps3dev/psl1ght/ppu/lib/libio.a(sprx.o)
 .comment       0x0000000000000000       0x12 /usr/local/ps3dev/psl1ght/ppu/lib/librt.a(sbrk.o)
 .comment       0x0000000000000000       0x12 /usr/local/ps3dev/psl1ght/ppu/lib/librt.a(exit.o)
 .comment       0x0000000000000000       0x12 /usr/local/ps3dev/psl1ght/ppu/lib/librt.a(close.o)
 .comment       0x0000000000000000       0x12 /usr/local/ps3dev/psl1ght/ppu/lib/librt.a(lseek.o)
 .comment       0x0000000000000000       0x12 /usr/local/ps3dev/psl1ght/ppu/lib/librt.a(read.o)
 .comment       0x0000000000000000       0x12 /usr/local/ps3dev/psl1ght/ppu/lib/librt.a(open.o)
 .comment       0x0000000000000000       0x12 /usr/local/ps3dev/psl1ght/ppu/lib/librt.a(sleep.o)
 .comment       0x0000000000000000       0x12 /usr/local/ps3dev/psl1ght/ppu/lib/librt.a(write.o)
 .comment       0x0000000000000000       0x12 /usr/local/ps3dev/psl1ght/ppu/lib/librt.a(fstat.o)
 .comment       0x0000000000000000       0x12 /usr/local/ps3dev/psl1ght/ppu/lib/librt.a(socket.o)
 .comment       0x0000000000000000       0x12 /usr/local/ps3dev/psl1ght/ppu/lib/librt.a(lock.o)
 .comment       0x0000000000000000       0x12 /usr/local/ps3dev/psl1ght/ppu/lib/librt.a(dirent.o)
 .comment       0x0000000000000000       0x12 /usr/local/ps3dev/psl1ght/ppu/lib/librt.a(mkdir.o)
 .comment       0x0000000000000000       0x12 /usr/local/ps3dev/psl1ght/ppu/lib/librt.a(times.o)
 .comment       0x0000000000000000       0x12 /usr/local/ps3dev/psl1ght/ppu/lib/librt.a(umask.o)
 .comment       0x0000000000000000       0x12 /usr/local/ps3dev/psl1ght/ppu/lib/librt.a(lv2errno.o)
 .comment       0x0000000000000000       0x12 /usr/local/ps3dev/psl1ght/ppu/lib/librt.a(heap.o)
 .comment       0x0000000000000000       0x12 /usr/local/ps3dev/psl1ght/ppu/lib/librt.a(chmod.o)
 .comment       0x0000000000000000       0x12 /usr/local/ps3dev/psl1ght/ppu/lib/librt.a(rmdir.o)
 .comment       0x0000000000000000       0x12 /usr/local/ps3dev/psl1ght/ppu/lib/librt.a(isatty.o)
 .comment       0x0000000000000000       0x12 /usr/local/ps3dev/psl1ght/ppu/lib/librt.a(gettod.o)
 .comment       0x0000000000000000       0x12 /usr/local/ps3dev/psl1ght/ppu/lib/librt.a(settod.o)
 .comment       0x0000000000000000       0x12 /usr/local/ps3dev/psl1ght/ppu/lib/liblv2.a(sprx.o)
 .comment       0x0000000000000000       0x12 /usr/local/ps3dev/ppu/lib/gcc/powerpc64-ps3-elf/7.2.0/../../../../powerpc64-ps3-elf/lib/libsysbase.a(syscalls.o)
 .comment       0x0000000000000000       0x12 /usr/local/ps3dev/ppu/lib/gcc/powerpc64-ps3-elf/7.2.0/../../../../powerpc64-ps3-elf/lib/libsysbase.a(sleep.o)
 .comment       0x0000000000000000       0x12 /usr/local/ps3dev/ppu/lib/gcc/powerpc64-ps3-elf/7.2.0/../../../../powerpc64-ps3-elf/lib/libc.a(lib_a-calloc.o)
 .comment       0x0000000000000000       0x12 /usr/local/ps3dev/ppu/lib/gcc/powerpc64-ps3-elf/7.2.0/../../../../powerpc64-ps3-elf/lib/libc.a(lib_a-callocr.o)
 .comment       0x0000000000000000       0x12 /usr/local/ps3dev/ppu/lib/gcc/powerpc64-ps3-elf/7.2.0/../../../../powerpc64-ps3-elf/lib/libc.a(lib_a-errno.o)
 .comment       0x0000000000000000       0x12 /usr/local/ps3dev/ppu/lib/gcc/powerpc64-ps3-elf/7.2.0/../../../../powerpc64-ps3-elf/lib/libc.a(lib_a-exit.o)
 .comment       0x0000000000000000       0x12 /usr/local/ps3dev/ppu/lib/gcc/powerpc64-ps3-elf/7.2.0/../../../../powerpc64-ps3-elf/lib/libc.a(lib_a-getreent.o)
 .comment       0x0000000000000000       0x12 /usr/local/ps3dev/ppu/lib/gcc/powerpc64-ps3-elf/7.2.0/../../../../powerpc64-ps3-elf/lib/libc.a(lib_a-impure.o)
 .comment       0x0000000000000000       0x12 /usr/local/ps3dev/ppu/lib/gcc/powerpc64-ps3-elf/7.2.0/../../../../powerpc64-ps3-elf/lib/libc.a(lib_a-malign.o)
 .comment       0x0000000000000000       0x12 /usr/local/ps3dev/ppu/lib/gcc/powerpc64-ps3-elf/7.2.0/../../../../powerpc64-ps3-elf/lib/libc.a(lib_a-malignr.o)
 .comment       0x0000000000000000       0x12 /usr/local/ps3dev/ppu/lib/gcc/powerpc64-ps3-elf/7.2.0/../../../../powerpc64-ps3-elf/lib/libc.a(lib_a-malloc.o)
 .comment       0x0000000000000000       0x12 /usr/local/ps3dev/ppu/lib/gcc/powerpc64-ps3-elf/7.2.0/../../../../powerpc64-ps3-elf/lib/libc.a(lib_a-mallocr.o)
 .comment       0x0000000000000000       0x12 /usr/local/ps3dev/ppu/lib/gcc/powerpc64-ps3-elf/7.2.0/../../../../powerpc64-ps3-elf/lib/libc.a(lib_a-memset.o)
 .comment       0x0000000000000000       0x12 /usr/local/ps3dev/ppu/lib/gcc/powerpc64-ps3-elf/7.2.0/../../../../powerpc64-ps3-elf/lib/libc.a(lib_a-mlock.o)
 .comment       0x0000000000000000       0x12 /usr/local/ps3dev/ppu/lib/gcc/powerpc64-ps3-elf/7.2.0/../../../../powerpc64-ps3-elf/lib/libc.a(lib_a-sscanf.o)
 .comment       0x0000000000000000       0x12 /usr/local/ps3dev/ppu/lib/gcc/powerpc64-ps3-elf/7.2.0/../../../../powerpc64-ps3-elf/lib/libc.a(lib_a-stdio.o)
 .comment       0x0000000000000000       0x12 /usr/local/ps3dev/ppu/lib/gcc/powerpc64-ps3-elf/7.2.0/../../../../powerpc64-ps3-elf/lib/libc.a(lib_a-strcasecmp.o)
 .comment       0x0000000000000000       0x12 /usr/local/ps3dev/ppu/lib/gcc/powerpc64-ps3-elf/7.2.0/../../../../powerpc64-ps3-elf/lib/libc.a(lib_a-strlen.o)
 .comment       0x0000000000000000       0x12 /usr/local/ps3dev/ppu/lib/gcc/powerpc64-ps3-elf/7.2.0/../../../../powerpc64-ps3-elf/lib/libc.a(lib_a-strncpy.o)
 .comment       0x0000000000000000       0x12 /usr/local/ps3dev/ppu/lib/gcc/powerpc64-ps3-elf/7.2.0/../../../../powerpc64-ps3-elf/lib/libc.a(lib_a-svfscanf.o)
 .comment       0x0000000000000000       0x12 /usr/local/ps3dev/ppu/lib/gcc/powerpc64-ps3-elf/7.2.0/../../../../powerpc64-ps3-elf/lib/libc.a(lib_a-__call_atexit.o)
 .comment       0x0000000000000000       0x12 /usr/local/ps3dev/ppu/lib/gcc/powerpc64-ps3-elf/7.2.0/../../../../powerpc64-ps3-elf/lib/libc.a(lib_a-ctype_.o)
 .comment       0x0000000000000000       0x12 /usr/local/ps3dev/ppu/lib/gcc/powerpc64-ps3-elf/7.2.0/../../../../powerpc64-ps3-elf/lib/libc.a(lib_a-freer.o)
 .comment       0x0000000000000000       0x12 /usr/local/ps3dev/ppu/lib/gcc/powerpc64-ps3-elf/7.2.0/../../../../powerpc64-ps3-elf/lib/libc.a(lib_a-iswspace.o)
 .comment       0x0000000000000000       0x12 /usr/local/ps3dev/ppu/lib/gcc/powerpc64-ps3-elf/7.2.0/../../../../powerpc64-ps3-elf/lib/libc.a(lib_a-locale.o)
 .comment       0x0000000000000000       0x12 /usr/local/ps3dev/ppu/lib/gcc/powerpc64-ps3-elf/7.2.0/../../../../powerpc64-ps3-elf/lib/libc.a(lib_a-lock_recursive.o)
 .comment       0x0000000000000000       0x12 /usr/local/ps3dev/ppu/lib/gcc/powerpc64-ps3-elf/7.2.0/../../../../powerpc64-ps3-elf/lib/libc.a(lib_a-mbrtowc.o)
 .comment       0x0000000000000000       0x12 /usr/local/ps3dev/ppu/lib/gcc/powerpc64-ps3-elf/7.2.0/../../../../powerpc64-ps3-elf/lib/libc.a(lib_a-mbtowc_r.o)
 .comment       0x0000000000000000       0x12 /usr/local/ps3dev/ppu/lib/gcc/powerpc64-ps3-elf/7.2.0/../../../../powerpc64-ps3-elf/lib/libc.a(lib_a-s_fpclassify.o)
 .comment       0x0000000000000000       0x12 /usr/local/ps3dev/ppu/lib/gcc/powerpc64-ps3-elf/7.2.0/../../../../powerpc64-ps3-elf/lib/libc.a(lib_a-sccl.o)
 .comment       0x0000000000000000       0x12 /usr/local/ps3dev/ppu/lib/gcc/powerpc64-ps3-elf/7.2.0/../../../../powerpc64-ps3-elf/lib/libc.a(lib_a-sf_nan.o)
 .comment       0x0000000000000000       0x12 /usr/local/ps3dev/ppu/lib/gcc/powerpc64-ps3-elf/7.2.0/../../../../powerpc64-ps3-elf/lib/libc.a(lib_a-sprintf.o)
 .comment       0x0000000000000000       0x12 /usr/local/ps3dev/ppu/lib/gcc/powerpc64-ps3-elf/7.2.0/../../../../powerpc64-ps3-elf/lib/libc.a(lib_a-strcmp.o)
 .comment       0x0000000000000000       0x12 /usr/local/ps3dev/ppu/lib/gcc/powerpc64-ps3-elf/7.2.0/../../../../powerpc64-ps3-elf/lib/libc.a(lib_a-strtod.o)
 .comment       0x0000000000000000       0x12 /usr/local/ps3dev/ppu/lib/gcc/powerpc64-ps3-elf/7.2.0/../../../../powerpc64-ps3-elf/lib/libc.a(lib_a-strtol.o)
 .comment       0x0000000000000000       0x12 /usr/local/ps3dev/ppu/lib/gcc/powerpc64-ps3-elf/7.2.0/../../../../powerpc64-ps3-elf/lib/libc.a(lib_a-strtoll_r.o)
 .comment       0x0000000000000000       0x12 /usr/local/ps3dev/ppu/lib/gcc/powerpc64-ps3-elf/7.2.0/../../../../powerpc64-ps3-elf/lib/libc.a(lib_a-strtoul.o)
 .comment       0x0000000000000000       0x12 /usr/local/ps3dev/ppu/lib/gcc/powerpc64-ps3-elf/7.2.0/../../../../powerpc64-ps3-elf/lib/libc.a(lib_a-strtoull_r.o)
 .comment       0x0000000000000000       0x12 /usr/local/ps3dev/ppu/lib/gcc/powerpc64-ps3-elf/7.2.0/../../../../powerpc64-ps3-elf/lib/libc.a(lib_a-svfiscanf.o)
 .comment       0x0000000000000000       0x12 /usr/local/ps3dev/ppu/lib/gcc/powerpc64-ps3-elf/7.2.0/../../../../powerpc64-ps3-elf/lib/libc.a(lib_a-svfprintf.o)
 .comment       0x0000000000000000       0x12 /usr/local/ps3dev/ppu/lib/gcc/powerpc64-ps3-elf/7.2.0/../../../../powerpc64-ps3-elf/lib/libc.a(lib_a-ungetc.o)
 .comment       0x0000000000000000       0x12 /usr/local/ps3dev/ppu/lib/gcc/powerpc64-ps3-elf/7.2.0/../../../../powerpc64-ps3-elf/lib/libc.a(lib_a-__atexit.o)
 .comment       0x0000000000000000       0x12 /usr/local/ps3dev/ppu/lib/gcc/powerpc64-ps3-elf/7.2.0/../../../../powerpc64-ps3-elf/lib/libc.a(lib_a-dtoa.o)
 .comment       0x0000000000000000       0x12 /usr/local/ps3dev/ppu/lib/gcc/powerpc64-ps3-elf/7.2.0/../../../../powerpc64-ps3-elf/lib/libc.a(lib_a-fflush.o)
 .comment       0x0000000000000000       0x12 /usr/local/ps3dev/ppu/lib/gcc/powerpc64-ps3-elf/7.2.0/../../../../powerpc64-ps3-elf/lib/libc.a(lib_a-findfp.o)
 .comment       0x0000000000000000       0x12 /usr/local/ps3dev/ppu/lib/gcc/powerpc64-ps3-elf/7.2.0/../../../../powerpc64-ps3-elf/lib/libc.a(lib_a-fwalk.o)
 .comment       0x0000000000000000       0x12 /usr/local/ps3dev/ppu/lib/gcc/powerpc64-ps3-elf/7.2.0/../../../../powerpc64-ps3-elf/lib/libc.a(lib_a-gdtoa-gethex.o)
 .comment       0x0000000000000000       0x12 /usr/local/ps3dev/ppu/lib/gcc/powerpc64-ps3-elf/7.2.0/../../../../powerpc64-ps3-elf/lib/libc.a(lib_a-gdtoa-hexnan.o)
 .comment       0x0000000000000000       0x12 /usr/local/ps3dev/ppu/lib/gcc/powerpc64-ps3-elf/7.2.0/../../../../powerpc64-ps3-elf/lib/libc.a(lib_a-lock_internal.o)
 .comment       0x0000000000000000       0x12 /usr/local/ps3dev/ppu/lib/gcc/powerpc64-ps3-elf/7.2.0/../../../../powerpc64-ps3-elf/lib/libc.a(lib_a-memchr.o)
 .comment       0x0000000000000000       0x12 /usr/local/ps3dev/ppu/lib/gcc/powerpc64-ps3-elf/7.2.0/../../../../powerpc64-ps3-elf/lib/libc.a(lib_a-memcpy.o)
 .comment       0x0000000000000000       0x12 /usr/local/ps3dev/ppu/lib/gcc/powerpc64-ps3-elf/7.2.0/../../../../powerpc64-ps3-elf/lib/libc.a(lib_a-mprec.o)
 .comment       0x0000000000000000       0x12 /usr/local/ps3dev/ppu/lib/gcc/powerpc64-ps3-elf/7.2.0/../../../../powerpc64-ps3-elf/lib/libc.a(lib_a-reallocr.o)
 .comment       0x0000000000000000       0x12 /usr/local/ps3dev/ppu/lib/gcc/powerpc64-ps3-elf/7.2.0/../../../../powerpc64-ps3-elf/lib/libc.a(lib_a-strncmp.o)
 .comment       0x0000000000000000       0x12 /usr/local/ps3dev/ppu/lib/gcc/powerpc64-ps3-elf/7.2.0/../../../../powerpc64-ps3-elf/lib/libc.a(lib_a-svfiprintf.o)
 .comment       0x0000000000000000       0x12 /usr/local/ps3dev/ppu/lib/gcc/powerpc64-ps3-elf/7.2.0/../../../../powerpc64-ps3-elf/lib/libc.a(lib_a-abort.o)
 .comment       0x0000000000000000       0x12 /usr/local/ps3dev/ppu/lib/gcc/powerpc64-ps3-elf/7.2.0/../../../../powerpc64-ps3-elf/lib/libc.a(lib_a-fclose.o)
 .comment       0x0000000000000000       0x12 /usr/local/ps3dev/ppu/lib/gcc/powerpc64-ps3-elf/7.2.0/../../../../powerpc64-ps3-elf/lib/libc.a(lib_a-memmove.o)
 .comment       0x0000000000000000       0x12 /usr/local/ps3dev/ppu/lib/gcc/powerpc64-ps3-elf/7.2.0/../../../../powerpc64-ps3-elf/lib/libc.a(lib_a-signal.o)
 .comment       0x0000000000000000       0x12 /usr/local/ps3dev/ppu/lib/gcc/powerpc64-ps3-elf/7.2.0/../../../../powerpc64-ps3-elf/lib/libsysbase.a(close.o)
 .comment       0x0000000000000000       0x12 /usr/local/ps3dev/ppu/lib/gcc/powerpc64-ps3-elf/7.2.0/../../../../powerpc64-ps3-elf/lib/libsysbase.a(sbrk.o)
 .comment       0x0000000000000000       0x12 /usr/local/ps3dev/ppu/lib/gcc/powerpc64-ps3-elf/7.2.0/../../../../powerpc64-ps3-elf/lib/libsysbase.a(_exit.o)
 .comment       0x0000000000000000       0x12 /usr/local/ps3dev/ppu/lib/gcc/powerpc64-ps3-elf/7.2.0/../../../../powerpc64-ps3-elf/lib/libsysbase.a(lseek.o)
 .comment       0x0000000000000000       0x12 /usr/local/ps3dev/ppu/lib/gcc/powerpc64-ps3-elf/7.2.0/../../../../powerpc64-ps3-elf/lib/libsysbase.a(read.o)
 .comment       0x0000000000000000       0x12 /usr/local/ps3dev/ppu/lib/gcc/powerpc64-ps3-elf/7.2.0/../../../../powerpc64-ps3-elf/lib/libsysbase.a(write.o)
 .comment       0x0000000000000000       0x12 /usr/local/ps3dev/ppu/lib/gcc/powerpc64-ps3-elf/7.2.0/../../../../powerpc64-ps3-elf/lib/libsysbase.a(lock.o)
 .comment       0x0000000000000000       0x12 /usr/local/ps3dev/ppu/lib/gcc/powerpc64-ps3-elf/7.2.0/../../../../powerpc64-ps3-elf/lib/libsysbase.a(getpid.o)
 .comment       0x0000000000000000       0x12 /usr/local/ps3dev/ppu/lib/gcc/powerpc64-ps3-elf/7.2.0/../../../../powerpc64-ps3-elf/lib/libsysbase.a(kill.o)
 .comment       0x0000000000000000       0x12 /usr/local/ps3dev/ppu/lib/gcc/powerpc64-ps3-elf/7.2.0/crtend.o

.debug
 *(.debug)

.line
 *(.line)

.debug_srcinfo
 *(.debug_srcinfo)

.debug_sfnames
 *(.debug_sfnames)

.debug_aranges  0x0000000000000000     0x11d0
 *(.debug_aranges)
 .debug_aranges
                0x0000000000000000       0x20 /usr/local/ps3dev/ppu/lib/gcc/powerpc64-ps3-elf/7.2.0/../../../../powerpc64-ps3-elf/lib/libsysbase.a(syscalls.o)
 .debug_aranges
                0x0000000000000020       0x40 /usr/local/ps3dev/ppu/lib/gcc/powerpc64-ps3-elf/7.2.0/../../../../powerpc64-ps3-elf/lib/libsysbase.a(sleep.o)
 .debug_aranges
                0x0000000000000060       0x30 /usr/local/ps3dev/ppu/lib/gcc/powerpc64-ps3-elf/7.2.0/../../../../powerpc64-ps3-elf/lib/libc.a(lib_a-calloc.o)
 .debug_aranges
                0x0000000000000090       0x30 /usr/local/ps3dev/ppu/lib/gcc/powerpc64-ps3-elf/7.2.0/../../../../powerpc64-ps3-elf/lib/libc.a(lib_a-callocr.o)
 .debug_aranges
                0x00000000000000c0       0x30 /usr/local/ps3dev/ppu/lib/gcc/powerpc64-ps3-elf/7.2.0/../../../../powerpc64-ps3-elf/lib/libc.a(lib_a-errno.o)
 .debug_aranges
                0x00000000000000f0       0x30 /usr/local/ps3dev/ppu/lib/gcc/powerpc64-ps3-elf/7.2.0/../../../../powerpc64-ps3-elf/lib/libc.a(lib_a-exit.o)
 .debug_aranges
                0x0000000000000120       0x30 /usr/local/ps3dev/ppu/lib/gcc/powerpc64-ps3-elf/7.2.0/../../../../powerpc64-ps3-elf/lib/libc.a(lib_a-getreent.o)
 .debug_aranges
                0x0000000000000150       0x20 /usr/local/ps3dev/ppu/lib/gcc/powerpc64-ps3-elf/7.2.0/../../../../powerpc64-ps3-elf/lib/libc.a(lib_a-impure.o)
 .debug_aranges
                0x0000000000000170       0x30 /usr/local/ps3dev/ppu/lib/gcc/powerpc64-ps3-elf/7.2.0/../../../../powerpc64-ps3-elf/lib/libc.a(lib_a-malign.o)
 .debug_aranges
                0x00000000000001a0       0x30 /usr/local/ps3dev/ppu/lib/gcc/powerpc64-ps3-elf/7.2.0/../../../../powerpc64-ps3-elf/lib/libc.a(lib_a-malignr.o)
 .debug_aranges
                0x00000000000001d0       0x40 /usr/local/ps3dev/ppu/lib/gcc/powerpc64-ps3-elf/7.2.0/../../../../powerpc64-ps3-elf/lib/libc.a(lib_a-malloc.o)
 .debug_aranges
                0x0000000000000210       0x30 /usr/local/ps3dev/ppu/lib/gcc/powerpc64-ps3-elf/7.2.0/../../../../powerpc64-ps3-elf/lib/libc.a(lib_a-mallocr.o)
 .debug_aranges
                0x0000000000000240       0x30 /usr/local/ps3dev/ppu/lib/gcc/powerpc64-ps3-elf/7.2.0/../../../../powerpc64-ps3-elf/lib/libc.a(lib_a-memset.o)
 .debug_aranges
                0x0000000000000270       0x40 /usr/local/ps3dev/ppu/lib/gcc/powerpc64-ps3-elf/7.2.0/../../../../powerpc64-ps3-elf/lib/libc.a(lib_a-mlock.o)
 .debug_aranges
                0x00000000000002b0       0x40 /usr/local/ps3dev/ppu/lib/gcc/powerpc64-ps3-elf/7.2.0/../../../../powerpc64-ps3-elf/lib/libc.a(lib_a-sscanf.o)
 .debug_aranges
                0x00000000000002f0       0x70 /usr/local/ps3dev/ppu/lib/gcc/powerpc64-ps3-elf/7.2.0/../../../../powerpc64-ps3-elf/lib/libc.a(lib_a-stdio.o)
 .debug_aranges
                0x0000000000000360       0x30 /usr/local/ps3dev/ppu/lib/gcc/powerpc64-ps3-elf/7.2.0/../../../../powerpc64-ps3-elf/lib/libc.a(lib_a-strcasecmp.o)
 .debug_aranges
                0x0000000000000390       0x30 /usr/local/ps3dev/ppu/lib/gcc/powerpc64-ps3-elf/7.2.0/../../../../powerpc64-ps3-elf/lib/libc.a(lib_a-strlen.o)
 .debug_aranges
                0x00000000000003c0       0x30 /usr/local/ps3dev/ppu/lib/gcc/powerpc64-ps3-elf/7.2.0/../../../../powerpc64-ps3-elf/lib/libc.a(lib_a-strncpy.o)
 .debug_aranges
                0x00000000000003f0       0x30 /usr/local/ps3dev/ppu/lib/gcc/powerpc64-ps3-elf/7.2.0/../../../../powerpc64-ps3-elf/lib/libc.a(lib_a-svfscanf.o)
 .debug_aranges
                0x0000000000000420       0x30 /usr/local/ps3dev/ppu/lib/gcc/powerpc64-ps3-elf/7.2.0/../../../../powerpc64-ps3-elf/lib/libc.a(lib_a-__call_atexit.o)
 .debug_aranges
                0x0000000000000450       0x20 /usr/local/ps3dev/ppu/lib/gcc/powerpc64-ps3-elf/7.2.0/../../../../powerpc64-ps3-elf/lib/libc.a(lib_a-ctype_.o)
 .debug_aranges
                0x0000000000000470       0x40 /usr/local/ps3dev/ppu/lib/gcc/powerpc64-ps3-elf/7.2.0/../../../../powerpc64-ps3-elf/lib/libc.a(lib_a-freer.o)
 .debug_aranges
                0x00000000000004b0       0x30 /usr/local/ps3dev/ppu/lib/gcc/powerpc64-ps3-elf/7.2.0/../../../../powerpc64-ps3-elf/lib/libc.a(lib_a-iswspace.o)
 .debug_aranges
                0x00000000000004e0       0xa0 /usr/local/ps3dev/ppu/lib/gcc/powerpc64-ps3-elf/7.2.0/../../../../powerpc64-ps3-elf/lib/libc.a(lib_a-locale.o)
 .debug_aranges
                0x0000000000000580       0x70 /usr/local/ps3dev/ppu/lib/gcc/powerpc64-ps3-elf/7.2.0/../../../../powerpc64-ps3-elf/lib/libc.a(lib_a-lock_recursive.o)
 .debug_aranges
                0x00000000000005f0       0x40 /usr/local/ps3dev/ppu/lib/gcc/powerpc64-ps3-elf/7.2.0/../../../../powerpc64-ps3-elf/lib/libc.a(lib_a-mbrtowc.o)
 .debug_aranges
                0x0000000000000630       0x40 /usr/local/ps3dev/ppu/lib/gcc/powerpc64-ps3-elf/7.2.0/../../../../powerpc64-ps3-elf/lib/libc.a(lib_a-mbtowc_r.o)
 .debug_aranges
                0x0000000000000670       0x30 /usr/local/ps3dev/ppu/lib/gcc/powerpc64-ps3-elf/7.2.0/../../../../powerpc64-ps3-elf/lib/libc.a(lib_a-s_fpclassify.o)
 .debug_aranges
                0x00000000000006a0       0x30 /usr/local/ps3dev/ppu/lib/gcc/powerpc64-ps3-elf/7.2.0/../../../../powerpc64-ps3-elf/lib/libc.a(lib_a-sccl.o)
 .debug_aranges
                0x00000000000006d0       0x30 /usr/local/ps3dev/ppu/lib/gcc/powerpc64-ps3-elf/7.2.0/../../../../powerpc64-ps3-elf/lib/libc.a(lib_a-sf_nan.o)
 .debug_aranges
                0x0000000000000700       0x40 /usr/local/ps3dev/ppu/lib/gcc/powerpc64-ps3-elf/7.2.0/../../../../powerpc64-ps3-elf/lib/libc.a(lib_a-sprintf.o)
 .debug_aranges
                0x0000000000000740       0x30 /usr/local/ps3dev/ppu/lib/gcc/powerpc64-ps3-elf/7.2.0/../../../../powerpc64-ps3-elf/lib/libc.a(lib_a-strcmp.o)
 .debug_aranges
                0x0000000000000770       0x50 /usr/local/ps3dev/ppu/lib/gcc/powerpc64-ps3-elf/7.2.0/../../../../powerpc64-ps3-elf/lib/libc.a(lib_a-strtod.o)
 .debug_aranges
                0x00000000000007c0       0x40 /usr/local/ps3dev/ppu/lib/gcc/powerpc64-ps3-elf/7.2.0/../../../../powerpc64-ps3-elf/lib/libc.a(lib_a-strtol.o)
 .debug_aranges
                0x0000000000000800       0x30 /usr/local/ps3dev/ppu/lib/gcc/powerpc64-ps3-elf/7.2.0/../../../../powerpc64-ps3-elf/lib/libc.a(lib_a-strtoll_r.o)
 .debug_aranges
                0x0000000000000830       0x40 /usr/local/ps3dev/ppu/lib/gcc/powerpc64-ps3-elf/7.2.0/../../../../powerpc64-ps3-elf/lib/libc.a(lib_a-strtoul.o)
 .debug_aranges
                0x0000000000000870       0x30 /usr/local/ps3dev/ppu/lib/gcc/powerpc64-ps3-elf/7.2.0/../../../../powerpc64-ps3-elf/lib/libc.a(lib_a-strtoull_r.o)
 .debug_aranges
                0x00000000000008a0       0x60 /usr/local/ps3dev/ppu/lib/gcc/powerpc64-ps3-elf/7.2.0/../../../../powerpc64-ps3-elf/lib/libc.a(lib_a-svfiscanf.o)
 .debug_aranges
                0x0000000000000900       0x30 /usr/local/ps3dev/ppu/lib/gcc/powerpc64-ps3-elf/7.2.0/../../../../powerpc64-ps3-elf/lib/libc.a(lib_a-svfprintf.o)
 .debug_aranges
                0x0000000000000930       0x50 /usr/local/ps3dev/ppu/lib/gcc/powerpc64-ps3-elf/7.2.0/../../../../powerpc64-ps3-elf/lib/libc.a(lib_a-ungetc.o)
 .debug_aranges
                0x0000000000000980       0x30 /usr/local/ps3dev/ppu/lib/gcc/powerpc64-ps3-elf/7.2.0/../../../../powerpc64-ps3-elf/lib/libc.a(lib_a-__atexit.o)
 .debug_aranges
                0x00000000000009b0       0x40 /usr/local/ps3dev/ppu/lib/gcc/powerpc64-ps3-elf/7.2.0/../../../../powerpc64-ps3-elf/lib/libc.a(lib_a-dtoa.o)
 .debug_aranges
                0x00000000000009f0       0x50 /usr/local/ps3dev/ppu/lib/gcc/powerpc64-ps3-elf/7.2.0/../../../../powerpc64-ps3-elf/lib/libc.a(lib_a-fflush.o)
 .debug_aranges
                0x0000000000000a40      0x100 /usr/local/ps3dev/ppu/lib/gcc/powerpc64-ps3-elf/7.2.0/../../../../powerpc64-ps3-elf/lib/libc.a(lib_a-findfp.o)
 .debug_aranges
                0x0000000000000b40       0x40 /usr/local/ps3dev/ppu/lib/gcc/powerpc64-ps3-elf/7.2.0/../../../../powerpc64-ps3-elf/lib/libc.a(lib_a-fwalk.o)
 .debug_aranges
                0x0000000000000b80       0x50 /usr/local/ps3dev/ppu/lib/gcc/powerpc64-ps3-elf/7.2.0/../../../../powerpc64-ps3-elf/lib/libc.a(lib_a-gdtoa-gethex.o)
 .debug_aranges
                0x0000000000000bd0       0x30 /usr/local/ps3dev/ppu/lib/gcc/powerpc64-ps3-elf/7.2.0/../../../../powerpc64-ps3-elf/lib/libc.a(lib_a-gdtoa-hexnan.o)
 .debug_aranges
                0x0000000000000c00       0x40 /usr/local/ps3dev/ppu/lib/gcc/powerpc64-ps3-elf/7.2.0/../../../../powerpc64-ps3-elf/lib/libc.a(lib_a-lock_internal.o)
 .debug_aranges
                0x0000000000000c40       0x30 /usr/local/ps3dev/ppu/lib/gcc/powerpc64-ps3-elf/7.2.0/../../../../powerpc64-ps3-elf/lib/libc.a(lib_a-memchr.o)
 .debug_aranges
                0x0000000000000c70       0x30 /usr/local/ps3dev/ppu/lib/gcc/powerpc64-ps3-elf/7.2.0/../../../../powerpc64-ps3-elf/lib/libc.a(lib_a-memcpy.o)
 .debug_aranges
                0x0000000000000ca0      0x150 /usr/local/ps3dev/ppu/lib/gcc/powerpc64-ps3-elf/7.2.0/../../../../powerpc64-ps3-elf/lib/libc.a(lib_a-mprec.o)
 .debug_aranges
                0x0000000000000df0       0x30 /usr/local/ps3dev/ppu/lib/gcc/powerpc64-ps3-elf/7.2.0/../../../../powerpc64-ps3-elf/lib/libc.a(lib_a-reallocr.o)
 .debug_aranges
                0x0000000000000e20       0x30 /usr/local/ps3dev/ppu/lib/gcc/powerpc64-ps3-elf/7.2.0/../../../../powerpc64-ps3-elf/lib/libc.a(lib_a-strncmp.o)
 .debug_aranges
                0x0000000000000e50       0x40 /usr/local/ps3dev/ppu/lib/gcc/powerpc64-ps3-elf/7.2.0/../../../../powerpc64-ps3-elf/lib/libc.a(lib_a-svfiprintf.o)
 .debug_aranges
                0x0000000000000e90       0x30 /usr/local/ps3dev/ppu/lib/gcc/powerpc64-ps3-elf/7.2.0/../../../../powerpc64-ps3-elf/lib/libc.a(lib_a-abort.o)
 .debug_aranges
                0x0000000000000ec0       0x40 /usr/local/ps3dev/ppu/lib/gcc/powerpc64-ps3-elf/7.2.0/../../../../powerpc64-ps3-elf/lib/libc.a(lib_a-fclose.o)
 .debug_aranges
                0x0000000000000f00       0x30 /usr/local/ps3dev/ppu/lib/gcc/powerpc64-ps3-elf/7.2.0/../../../../powerpc64-ps3-elf/lib/libc.a(lib_a-memmove.o)
 .debug_aranges
                0x0000000000000f30       0xb0 /usr/local/ps3dev/ppu/lib/gcc/powerpc64-ps3-elf/7.2.0/../../../../powerpc64-ps3-elf/lib/libc.a(lib_a-signal.o)
 .debug_aranges
                0x0000000000000fe0       0x30 /usr/local/ps3dev/ppu/lib/gcc/powerpc64-ps3-elf/7.2.0/../../../../powerpc64-ps3-elf/lib/libsysbase.a(close.o)
 .debug_aranges
                0x0000000000001010       0x30 /usr/local/ps3dev/ppu/lib/gcc/powerpc64-ps3-elf/7.2.0/../../../../powerpc64-ps3-elf/lib/libsysbase.a(sbrk.o)
 .debug_aranges
                0x0000000000001040       0x30 /usr/local/ps3dev/ppu/lib/gcc/powerpc64-ps3-elf/7.2.0/../../../../powerpc64-ps3-elf/lib/libsysbase.a(_exit.o)
 .debug_aranges
                0x0000000000001070       0x30 /usr/local/ps3dev/ppu/lib/gcc/powerpc64-ps3-elf/7.2.0/../../../../powerpc64-ps3-elf/lib/libsysbase.a(lseek.o)
 .debug_aranges
                0x00000000000010a0       0x30 /usr/local/ps3dev/ppu/lib/gcc/powerpc64-ps3-elf/7.2.0/../../../../powerpc64-ps3-elf/lib/libsysbase.a(read.o)
 .debug_aranges
                0x00000000000010d0       0x30 /usr/local/ps3dev/ppu/lib/gcc/powerpc64-ps3-elf/7.2.0/../../../../powerpc64-ps3-elf/lib/libsysbase.a(write.o)
 .debug_aranges
                0x0000000000001100       0x70 /usr/local/ps3dev/ppu/lib/gcc/powerpc64-ps3-elf/7.2.0/../../../../powerpc64-ps3-elf/lib/libsysbase.a(lock.o)
 .debug_aranges
                0x0000000000001170       0x30 /usr/local/ps3dev/ppu/lib/gcc/powerpc64-ps3-elf/7.2.0/../../../../powerpc64-ps3-elf/lib/libsysbase.a(getpid.o)
 .debug_aranges
                0x00000000000011a0       0x30 /usr/local/ps3dev/ppu/lib/gcc/powerpc64-ps3-elf/7.2.0/../../../../powerpc64-ps3-elf/lib/libsysbase.a(kill.o)

.debug_pubnames
 *(.debug_pubnames)

.debug_info     0x0000000000000000    0x39b5c
 *(.debug_info .gnu.linkonce.wi.*)
 .debug_info    0x0000000000000000     0x13ed /usr/local/ps3dev/ppu/lib/gcc/powerpc64-ps3-elf/7.2.0/../../../../powerpc64-ps3-elf/lib/libsysbase.a(syscalls.o)
 .debug_info    0x00000000000013ed     0x14d7 /usr/local/ps3dev/ppu/lib/gcc/powerpc64-ps3-elf/7.2.0/../../../../powerpc64-ps3-elf/lib/libsysbase.a(sleep.o)
 .debug_info    0x00000000000028c4      0x971 /usr/local/ps3dev/ppu/lib/gcc/powerpc64-ps3-elf/7.2.0/../../../../powerpc64-ps3-elf/lib/libc.a(lib_a-calloc.o)
 .debug_info    0x0000000000003235      0xbc9 /usr/local/ps3dev/ppu/lib/gcc/powerpc64-ps3-elf/7.2.0/../../../../powerpc64-ps3-elf/lib/libc.a(lib_a-callocr.o)
 .debug_info    0x0000000000003dfe      0x94b /usr/local/ps3dev/ppu/lib/gcc/powerpc64-ps3-elf/7.2.0/../../../../powerpc64-ps3-elf/lib/libc.a(lib_a-errno.o)
 .debug_info    0x0000000000004749      0x9ad /usr/local/ps3dev/ppu/lib/gcc/powerpc64-ps3-elf/7.2.0/../../../../powerpc64-ps3-elf/lib/libc.a(lib_a-exit.o)
 .debug_info    0x00000000000050f6      0x9bd /usr/local/ps3dev/ppu/lib/gcc/powerpc64-ps3-elf/7.2.0/../../../../powerpc64-ps3-elf/lib/libc.a(lib_a-getreent.o)
 .debug_info    0x0000000000005ab3      0x906 /usr/local/ps3dev/ppu/lib/gcc/powerpc64-ps3-elf/7.2.0/../../../../powerpc64-ps3-elf/lib/libc.a(lib_a-impure.o)
 .debug_info    0x00000000000063b9      0x973 /usr/local/ps3dev/ppu/lib/gcc/powerpc64-ps3-elf/7.2.0/../../../../powerpc64-ps3-elf/lib/libc.a(lib_a-malign.o)
 .debug_info    0x0000000000006d2c      0xc63 /usr/local/ps3dev/ppu/lib/gcc/powerpc64-ps3-elf/7.2.0/../../../../powerpc64-ps3-elf/lib/libc.a(lib_a-malignr.o)
 .debug_info    0x000000000000798f      0x9b7 /usr/local/ps3dev/ppu/lib/gcc/powerpc64-ps3-elf/7.2.0/../../../../powerpc64-ps3-elf/lib/libc.a(lib_a-malloc.o)
 .debug_info    0x0000000000008346      0xeac /usr/local/ps3dev/ppu/lib/gcc/powerpc64-ps3-elf/7.2.0/../../../../powerpc64-ps3-elf/lib/libc.a(lib_a-mallocr.o)
 .debug_info    0x00000000000091f2      0x97c /usr/local/ps3dev/ppu/lib/gcc/powerpc64-ps3-elf/7.2.0/../../../../powerpc64-ps3-elf/lib/libc.a(lib_a-memset.o)
 .debug_info    0x0000000000009b6e      0x99a /usr/local/ps3dev/ppu/lib/gcc/powerpc64-ps3-elf/7.2.0/../../../../powerpc64-ps3-elf/lib/libc.a(lib_a-mlock.o)
 .debug_info    0x000000000000a508      0xc83 /usr/local/ps3dev/ppu/lib/gcc/powerpc64-ps3-elf/7.2.0/../../../../powerpc64-ps3-elf/lib/libc.a(lib_a-sscanf.o)
 .debug_info    0x000000000000b18b      0xdd2 /usr/local/ps3dev/ppu/lib/gcc/powerpc64-ps3-elf/7.2.0/../../../../powerpc64-ps3-elf/lib/libc.a(lib_a-stdio.o)
 .debug_info    0x000000000000bf5d      0x9ea /usr/local/ps3dev/ppu/lib/gcc/powerpc64-ps3-elf/7.2.0/../../../../powerpc64-ps3-elf/lib/libc.a(lib_a-strcasecmp.o)
 .debug_info    0x000000000000c947      0x93f /usr/local/ps3dev/ppu/lib/gcc/powerpc64-ps3-elf/7.2.0/../../../../powerpc64-ps3-elf/lib/libc.a(lib_a-strlen.o)
 .debug_info    0x000000000000d286      0x980 /usr/local/ps3dev/ppu/lib/gcc/powerpc64-ps3-elf/7.2.0/../../../../powerpc64-ps3-elf/lib/libc.a(lib_a-strncpy.o)
 .debug_info    0x000000000000dc06     0x161b /usr/local/ps3dev/ppu/lib/gcc/powerpc64-ps3-elf/7.2.0/../../../../powerpc64-ps3-elf/lib/libc.a(lib_a-svfscanf.o)
 .debug_info    0x000000000000f221      0xa23 /usr/local/ps3dev/ppu/lib/gcc/powerpc64-ps3-elf/7.2.0/../../../../powerpc64-ps3-elf/lib/libc.a(lib_a-__call_atexit.o)
 .debug_info    0x000000000000fc44       0x7b /usr/local/ps3dev/ppu/lib/gcc/powerpc64-ps3-elf/7.2.0/../../../../powerpc64-ps3-elf/lib/libc.a(lib_a-ctype_.o)
 .debug_info    0x000000000000fcbf      0xd57 /usr/local/ps3dev/ppu/lib/gcc/powerpc64-ps3-elf/7.2.0/../../../../powerpc64-ps3-elf/lib/libc.a(lib_a-freer.o)
 .debug_info    0x0000000000010a16      0x930 /usr/local/ps3dev/ppu/lib/gcc/powerpc64-ps3-elf/7.2.0/../../../../powerpc64-ps3-elf/lib/libc.a(lib_a-iswspace.o)
 .debug_info    0x0000000000011346      0xe27 /usr/local/ps3dev/ppu/lib/gcc/powerpc64-ps3-elf/7.2.0/../../../../powerpc64-ps3-elf/lib/libc.a(lib_a-locale.o)
 .debug_info    0x000000000001216d      0xb4f /usr/local/ps3dev/ppu/lib/gcc/powerpc64-ps3-elf/7.2.0/../../../../powerpc64-ps3-elf/lib/libc.a(lib_a-lock_recursive.o)
 .debug_info    0x0000000000012cbc      0xbfd /usr/local/ps3dev/ppu/lib/gcc/powerpc64-ps3-elf/7.2.0/../../../../powerpc64-ps3-elf/lib/libc.a(lib_a-mbrtowc.o)
 .debug_info    0x00000000000138b9      0xb2f /usr/local/ps3dev/ppu/lib/gcc/powerpc64-ps3-elf/7.2.0/../../../../powerpc64-ps3-elf/lib/libc.a(lib_a-mbtowc_r.o)
 .debug_info    0x00000000000143e8      0x9dc /usr/local/ps3dev/ppu/lib/gcc/powerpc64-ps3-elf/7.2.0/../../../../powerpc64-ps3-elf/lib/libc.a(lib_a-s_fpclassify.o)
 .debug_info    0x0000000000014dc4      0xb46 /usr/local/ps3dev/ppu/lib/gcc/powerpc64-ps3-elf/7.2.0/../../../../powerpc64-ps3-elf/lib/libc.a(lib_a-sccl.o)
 .debug_info    0x000000000001590a      0x9ab /usr/local/ps3dev/ppu/lib/gcc/powerpc64-ps3-elf/7.2.0/../../../../powerpc64-ps3-elf/lib/libc.a(lib_a-sf_nan.o)
 .debug_info    0x00000000000162b5      0xc47 /usr/local/ps3dev/ppu/lib/gcc/powerpc64-ps3-elf/7.2.0/../../../../powerpc64-ps3-elf/lib/libc.a(lib_a-sprintf.o)
 .debug_info    0x0000000000016efc      0x93f /usr/local/ps3dev/ppu/lib/gcc/powerpc64-ps3-elf/7.2.0/../../../../powerpc64-ps3-elf/lib/libc.a(lib_a-strcmp.o)
 .debug_info    0x000000000001783b     0x16ed /usr/local/ps3dev/ppu/lib/gcc/powerpc64-ps3-elf/7.2.0/../../../../powerpc64-ps3-elf/lib/libc.a(lib_a-strtod.o)
 .debug_info    0x0000000000018f28      0xa8f /usr/local/ps3dev/ppu/lib/gcc/powerpc64-ps3-elf/7.2.0/../../../../powerpc64-ps3-elf/lib/libc.a(lib_a-strtol.o)
 .debug_info    0x00000000000199b7      0xa0d /usr/local/ps3dev/ppu/lib/gcc/powerpc64-ps3-elf/7.2.0/../../../../powerpc64-ps3-elf/lib/libc.a(lib_a-strtoll_r.o)
 .debug_info    0x000000000001a3c4      0xa8f /usr/local/ps3dev/ppu/lib/gcc/powerpc64-ps3-elf/7.2.0/../../../../powerpc64-ps3-elf/lib/libc.a(lib_a-strtoul.o)
 .debug_info    0x000000000001ae53      0xa0d /usr/local/ps3dev/ppu/lib/gcc/powerpc64-ps3-elf/7.2.0/../../../../powerpc64-ps3-elf/lib/libc.a(lib_a-strtoull_r.o)
 .debug_info    0x000000000001b860     0x1511 /usr/local/ps3dev/ppu/lib/gcc/powerpc64-ps3-elf/7.2.0/../../../../powerpc64-ps3-elf/lib/libc.a(lib_a-svfiscanf.o)
 .debug_info    0x000000000001cd71     0x191f /usr/local/ps3dev/ppu/lib/gcc/powerpc64-ps3-elf/7.2.0/../../../../powerpc64-ps3-elf/lib/libc.a(lib_a-svfprintf.o)
 .debug_info    0x000000000001e690      0xd6f /usr/local/ps3dev/ppu/lib/gcc/powerpc64-ps3-elf/7.2.0/../../../../powerpc64-ps3-elf/lib/libc.a(lib_a-ungetc.o)
 .debug_info    0x000000000001f3ff      0xa25 /usr/local/ps3dev/ppu/lib/gcc/powerpc64-ps3-elf/7.2.0/../../../../powerpc64-ps3-elf/lib/libc.a(lib_a-__atexit.o)
 .debug_info    0x000000000001fe24     0x143a /usr/local/ps3dev/ppu/lib/gcc/powerpc64-ps3-elf/7.2.0/../../../../powerpc64-ps3-elf/lib/libc.a(lib_a-dtoa.o)
 .debug_info    0x000000000002125e      0xdc4 /usr/local/ps3dev/ppu/lib/gcc/powerpc64-ps3-elf/7.2.0/../../../../powerpc64-ps3-elf/lib/libc.a(lib_a-fflush.o)
 .debug_info    0x0000000000022022     0x128a /usr/local/ps3dev/ppu/lib/gcc/powerpc64-ps3-elf/7.2.0/../../../../powerpc64-ps3-elf/lib/libc.a(lib_a-findfp.o)
 .debug_info    0x00000000000232ac      0xc3e /usr/local/ps3dev/ppu/lib/gcc/powerpc64-ps3-elf/7.2.0/../../../../powerpc64-ps3-elf/lib/libc.a(lib_a-fwalk.o)
 .debug_info    0x0000000000023eea     0x11a9 /usr/local/ps3dev/ppu/lib/gcc/powerpc64-ps3-elf/7.2.0/../../../../powerpc64-ps3-elf/lib/libc.a(lib_a-gdtoa-gethex.o)
 .debug_info    0x0000000000025093      0xc30 /usr/local/ps3dev/ppu/lib/gcc/powerpc64-ps3-elf/7.2.0/../../../../powerpc64-ps3-elf/lib/libc.a(lib_a-gdtoa-hexnan.o)
 .debug_info    0x0000000000025cc3      0xa84 /usr/local/ps3dev/ppu/lib/gcc/powerpc64-ps3-elf/7.2.0/../../../../powerpc64-ps3-elf/lib/libc.a(lib_a-lock_internal.o)
 .debug_info    0x0000000000026747      0x994 /usr/local/ps3dev/ppu/lib/gcc/powerpc64-ps3-elf/7.2.0/../../../../powerpc64-ps3-elf/lib/libc.a(lib_a-memchr.o)
 .debug_info    0x00000000000270db      0x98b /usr/local/ps3dev/ppu/lib/gcc/powerpc64-ps3-elf/7.2.0/../../../../powerpc64-ps3-elf/lib/libc.a(lib_a-memcpy.o)
 .debug_info    0x0000000000027a66     0x18d9 /usr/local/ps3dev/ppu/lib/gcc/powerpc64-ps3-elf/7.2.0/../../../../powerpc64-ps3-elf/lib/libc.a(lib_a-mprec.o)
 .debug_info    0x000000000002933f      0xe68 /usr/local/ps3dev/ppu/lib/gcc/powerpc64-ps3-elf/7.2.0/../../../../powerpc64-ps3-elf/lib/libc.a(lib_a-reallocr.o)
 .debug_info    0x000000000002a1a7      0x957 /usr/local/ps3dev/ppu/lib/gcc/powerpc64-ps3-elf/7.2.0/../../../../powerpc64-ps3-elf/lib/libc.a(lib_a-strncmp.o)
 .debug_info    0x000000000002aafe     0x1382 /usr/local/ps3dev/ppu/lib/gcc/powerpc64-ps3-elf/7.2.0/../../../../powerpc64-ps3-elf/lib/libc.a(lib_a-svfiprintf.o)
 .debug_info    0x000000000002be80      0x997 /usr/local/ps3dev/ppu/lib/gcc/powerpc64-ps3-elf/7.2.0/../../../../powerpc64-ps3-elf/lib/libc.a(lib_a-abort.o)
 .debug_info    0x000000000002c817      0xd16 /usr/local/ps3dev/ppu/lib/gcc/powerpc64-ps3-elf/7.2.0/../../../../powerpc64-ps3-elf/lib/libc.a(lib_a-fclose.o)
 .debug_info    0x000000000002d52d      0x992 /usr/local/ps3dev/ppu/lib/gcc/powerpc64-ps3-elf/7.2.0/../../../../powerpc64-ps3-elf/lib/libc.a(lib_a-memmove.o)
 .debug_info    0x000000000002debf      0xe73 /usr/local/ps3dev/ppu/lib/gcc/powerpc64-ps3-elf/7.2.0/../../../../powerpc64-ps3-elf/lib/libc.a(lib_a-signal.o)
 .debug_info    0x000000000002ed32     0x1461 /usr/local/ps3dev/ppu/lib/gcc/powerpc64-ps3-elf/7.2.0/../../../../powerpc64-ps3-elf/lib/libsysbase.a(close.o)
 .debug_info    0x0000000000030193     0x1469 /usr/local/ps3dev/ppu/lib/gcc/powerpc64-ps3-elf/7.2.0/../../../../powerpc64-ps3-elf/lib/libsysbase.a(sbrk.o)
 .debug_info    0x00000000000315fc     0x1412 /usr/local/ps3dev/ppu/lib/gcc/powerpc64-ps3-elf/7.2.0/../../../../powerpc64-ps3-elf/lib/libsysbase.a(_exit.o)
 .debug_info    0x0000000000032a0e     0x1484 /usr/local/ps3dev/ppu/lib/gcc/powerpc64-ps3-elf/7.2.0/../../../../powerpc64-ps3-elf/lib/libsysbase.a(lseek.o)
 .debug_info    0x0000000000033e92     0x148b /usr/local/ps3dev/ppu/lib/gcc/powerpc64-ps3-elf/7.2.0/../../../../powerpc64-ps3-elf/lib/libsysbase.a(read.o)
 .debug_info    0x000000000003531d     0x148b /usr/local/ps3dev/ppu/lib/gcc/powerpc64-ps3-elf/7.2.0/../../../../powerpc64-ps3-elf/lib/libsysbase.a(write.o)
 .debug_info    0x00000000000367a8     0x1612 /usr/local/ps3dev/ppu/lib/gcc/powerpc64-ps3-elf/7.2.0/../../../../powerpc64-ps3-elf/lib/libsysbase.a(lock.o)
 .debug_info    0x0000000000037dba     0x1453 /usr/local/ps3dev/ppu/lib/gcc/powerpc64-ps3-elf/7.2.0/../../../../powerpc64-ps3-elf/lib/libsysbase.a(getpid.o)
 .debug_info    0x000000000003920d      0x94f /usr/local/ps3dev/ppu/lib/gcc/powerpc64-ps3-elf/7.2.0/../../../../powerpc64-ps3-elf/lib/libsysbase.a(kill.o)

.debug_abbrev   0x0000000000000000     0x9bc5
 *(.debug_abbrev)
 .debug_abbrev  0x0000000000000000      0x1d4 /usr/local/ps3dev/ppu/lib/gcc/powerpc64-ps3-elf/7.2.0/../../../../powerpc64-ps3-elf/lib/libsysbase.a(syscalls.o)
 .debug_abbrev  0x00000000000001d4      0x24e /usr/local/ps3dev/ppu/lib/gcc/powerpc64-ps3-elf/7.2.0/../../../../powerpc64-ps3-elf/lib/libsysbase.a(sleep.o)
 .debug_abbrev  0x0000000000000422      0x211 /usr/local/ps3dev/ppu/lib/gcc/powerpc64-ps3-elf/7.2.0/../../../../powerpc64-ps3-elf/lib/libc.a(lib_a-calloc.o)
 .debug_abbrev  0x0000000000000633      0x239 /usr/local/ps3dev/ppu/lib/gcc/powerpc64-ps3-elf/7.2.0/../../../../powerpc64-ps3-elf/lib/libc.a(lib_a-callocr.o)
 .debug_abbrev  0x000000000000086c      0x1d0 /usr/local/ps3dev/ppu/lib/gcc/powerpc64-ps3-elf/7.2.0/../../../../powerpc64-ps3-elf/lib/libc.a(lib_a-errno.o)
 .debug_abbrev  0x0000000000000a3c      0x1f4 /usr/local/ps3dev/ppu/lib/gcc/powerpc64-ps3-elf/7.2.0/../../../../powerpc64-ps3-elf/lib/libc.a(lib_a-exit.o)
 .debug_abbrev  0x0000000000000c30      0x210 /usr/local/ps3dev/ppu/lib/gcc/powerpc64-ps3-elf/7.2.0/../../../../powerpc64-ps3-elf/lib/libc.a(lib_a-getreent.o)
 .debug_abbrev  0x0000000000000e40      0x196 /usr/local/ps3dev/ppu/lib/gcc/powerpc64-ps3-elf/7.2.0/../../../../powerpc64-ps3-elf/lib/libc.a(lib_a-impure.o)
 .debug_abbrev  0x0000000000000fd6      0x202 /usr/local/ps3dev/ppu/lib/gcc/powerpc64-ps3-elf/7.2.0/../../../../powerpc64-ps3-elf/lib/libc.a(lib_a-malign.o)
 .debug_abbrev  0x00000000000011d8      0x22e /usr/local/ps3dev/ppu/lib/gcc/powerpc64-ps3-elf/7.2.0/../../../../powerpc64-ps3-elf/lib/libc.a(lib_a-malignr.o)
 .debug_abbrev  0x0000000000001406      0x21c /usr/local/ps3dev/ppu/lib/gcc/powerpc64-ps3-elf/7.2.0/../../../../powerpc64-ps3-elf/lib/libc.a(lib_a-malloc.o)
 .debug_abbrev  0x0000000000001622      0x2d1 /usr/local/ps3dev/ppu/lib/gcc/powerpc64-ps3-elf/7.2.0/../../../../powerpc64-ps3-elf/lib/libc.a(lib_a-mallocr.o)
 .debug_abbrev  0x00000000000018f3      0x1da /usr/local/ps3dev/ppu/lib/gcc/powerpc64-ps3-elf/7.2.0/../../../../powerpc64-ps3-elf/lib/libc.a(lib_a-memset.o)
 .debug_abbrev  0x0000000000001acd      0x1e0 /usr/local/ps3dev/ppu/lib/gcc/powerpc64-ps3-elf/7.2.0/../../../../powerpc64-ps3-elf/lib/libc.a(lib_a-mlock.o)
 .debug_abbrev  0x0000000000001cad      0x27c /usr/local/ps3dev/ppu/lib/gcc/powerpc64-ps3-elf/7.2.0/../../../../powerpc64-ps3-elf/lib/libc.a(lib_a-sscanf.o)
 .debug_abbrev  0x0000000000001f29      0x261 /usr/local/ps3dev/ppu/lib/gcc/powerpc64-ps3-elf/7.2.0/../../../../powerpc64-ps3-elf/lib/libc.a(lib_a-stdio.o)
 .debug_abbrev  0x000000000000218a      0x20b /usr/local/ps3dev/ppu/lib/gcc/powerpc64-ps3-elf/7.2.0/../../../../powerpc64-ps3-elf/lib/libc.a(lib_a-strcasecmp.o)
 .debug_abbrev  0x0000000000002395      0x1bc /usr/local/ps3dev/ppu/lib/gcc/powerpc64-ps3-elf/7.2.0/../../../../powerpc64-ps3-elf/lib/libc.a(lib_a-strlen.o)
 .debug_abbrev  0x0000000000002551      0x1e7 /usr/local/ps3dev/ppu/lib/gcc/powerpc64-ps3-elf/7.2.0/../../../../powerpc64-ps3-elf/lib/libc.a(lib_a-strncpy.o)
 .debug_abbrev  0x0000000000002738      0x329 /usr/local/ps3dev/ppu/lib/gcc/powerpc64-ps3-elf/7.2.0/../../../../powerpc64-ps3-elf/lib/libc.a(lib_a-svfscanf.o)
 .debug_abbrev  0x0000000000002a61      0x23b /usr/local/ps3dev/ppu/lib/gcc/powerpc64-ps3-elf/7.2.0/../../../../powerpc64-ps3-elf/lib/libc.a(lib_a-__call_atexit.o)
 .debug_abbrev  0x0000000000002c9c       0x53 /usr/local/ps3dev/ppu/lib/gcc/powerpc64-ps3-elf/7.2.0/../../../../powerpc64-ps3-elf/lib/libc.a(lib_a-ctype_.o)
 .debug_abbrev  0x0000000000002cef      0x277 /usr/local/ps3dev/ppu/lib/gcc/powerpc64-ps3-elf/7.2.0/../../../../powerpc64-ps3-elf/lib/libc.a(lib_a-freer.o)
 .debug_abbrev  0x0000000000002f66      0x1c1 /usr/local/ps3dev/ppu/lib/gcc/powerpc64-ps3-elf/7.2.0/../../../../powerpc64-ps3-elf/lib/libc.a(lib_a-iswspace.o)
 .debug_abbrev  0x0000000000003127      0x2e7 /usr/local/ps3dev/ppu/lib/gcc/powerpc64-ps3-elf/7.2.0/../../../../powerpc64-ps3-elf/lib/libc.a(lib_a-locale.o)
 .debug_abbrev  0x000000000000340e      0x202 /usr/local/ps3dev/ppu/lib/gcc/powerpc64-ps3-elf/7.2.0/../../../../powerpc64-ps3-elf/lib/libc.a(lib_a-lock_recursive.o)
 .debug_abbrev  0x0000000000003610      0x21f /usr/local/ps3dev/ppu/lib/gcc/powerpc64-ps3-elf/7.2.0/../../../../powerpc64-ps3-elf/lib/libc.a(lib_a-mbrtowc.o)
 .debug_abbrev  0x000000000000382f      0x24c /usr/local/ps3dev/ppu/lib/gcc/powerpc64-ps3-elf/7.2.0/../../../../powerpc64-ps3-elf/lib/libc.a(lib_a-mbtowc_r.o)
 .debug_abbrev  0x0000000000003a7b      0x200 /usr/local/ps3dev/ppu/lib/gcc/powerpc64-ps3-elf/7.2.0/../../../../powerpc64-ps3-elf/lib/libc.a(lib_a-s_fpclassify.o)
 .debug_abbrev  0x0000000000003c7b      0x1fd /usr/local/ps3dev/ppu/lib/gcc/powerpc64-ps3-elf/7.2.0/../../../../powerpc64-ps3-elf/lib/libc.a(lib_a-sccl.o)
 .debug_abbrev  0x0000000000003e78      0x1fe /usr/local/ps3dev/ppu/lib/gcc/powerpc64-ps3-elf/7.2.0/../../../../powerpc64-ps3-elf/lib/libc.a(lib_a-sf_nan.o)
 .debug_abbrev  0x0000000000004076      0x26f /usr/local/ps3dev/ppu/lib/gcc/powerpc64-ps3-elf/7.2.0/../../../../powerpc64-ps3-elf/lib/libc.a(lib_a-sprintf.o)
 .debug_abbrev  0x00000000000042e5      0x1bc /usr/local/ps3dev/ppu/lib/gcc/powerpc64-ps3-elf/7.2.0/../../../../powerpc64-ps3-elf/lib/libc.a(lib_a-strcmp.o)
 .debug_abbrev  0x00000000000044a1      0x3c3 /usr/local/ps3dev/ppu/lib/gcc/powerpc64-ps3-elf/7.2.0/../../../../powerpc64-ps3-elf/lib/libc.a(lib_a-strtod.o)
 .debug_abbrev  0x0000000000004864      0x235 /usr/local/ps3dev/ppu/lib/gcc/powerpc64-ps3-elf/7.2.0/../../../../powerpc64-ps3-elf/lib/libc.a(lib_a-strtol.o)
 .debug_abbrev  0x0000000000004a99      0x1f0 /usr/local/ps3dev/ppu/lib/gcc/powerpc64-ps3-elf/7.2.0/../../../../powerpc64-ps3-elf/lib/libc.a(lib_a-strtoll_r.o)
 .debug_abbrev  0x0000000000004c89      0x235 /usr/local/ps3dev/ppu/lib/gcc/powerpc64-ps3-elf/7.2.0/../../../../powerpc64-ps3-elf/lib/libc.a(lib_a-strtoul.o)
 .debug_abbrev  0x0000000000004ebe      0x1f0 /usr/local/ps3dev/ppu/lib/gcc/powerpc64-ps3-elf/7.2.0/../../../../powerpc64-ps3-elf/lib/libc.a(lib_a-strtoull_r.o)
 .debug_abbrev  0x00000000000050ae      0x33d /usr/local/ps3dev/ppu/lib/gcc/powerpc64-ps3-elf/7.2.0/../../../../powerpc64-ps3-elf/lib/libc.a(lib_a-svfiscanf.o)
 .debug_abbrev  0x00000000000053eb      0x3c2 /usr/local/ps3dev/ppu/lib/gcc/powerpc64-ps3-elf/7.2.0/../../../../powerpc64-ps3-elf/lib/libc.a(lib_a-svfprintf.o)
 .debug_abbrev  0x00000000000057ad      0x2eb /usr/local/ps3dev/ppu/lib/gcc/powerpc64-ps3-elf/7.2.0/../../../../powerpc64-ps3-elf/lib/libc.a(lib_a-ungetc.o)
 .debug_abbrev  0x0000000000005a98      0x24d /usr/local/ps3dev/ppu/lib/gcc/powerpc64-ps3-elf/7.2.0/../../../../powerpc64-ps3-elf/lib/libc.a(lib_a-__atexit.o)
 .debug_abbrev  0x0000000000005ce5      0x2d4 /usr/local/ps3dev/ppu/lib/gcc/powerpc64-ps3-elf/7.2.0/../../../../powerpc64-ps3-elf/lib/libc.a(lib_a-dtoa.o)
 .debug_abbrev  0x0000000000005fb9      0x2ee /usr/local/ps3dev/ppu/lib/gcc/powerpc64-ps3-elf/7.2.0/../../../../powerpc64-ps3-elf/lib/libc.a(lib_a-fflush.o)
 .debug_abbrev  0x00000000000062a7      0x3ab /usr/local/ps3dev/ppu/lib/gcc/powerpc64-ps3-elf/7.2.0/../../../../powerpc64-ps3-elf/lib/libc.a(lib_a-findfp.o)
 .debug_abbrev  0x0000000000006652      0x219 /usr/local/ps3dev/ppu/lib/gcc/powerpc64-ps3-elf/7.2.0/../../../../powerpc64-ps3-elf/lib/libc.a(lib_a-fwalk.o)
 .debug_abbrev  0x000000000000686b      0x3b5 /usr/local/ps3dev/ppu/lib/gcc/powerpc64-ps3-elf/7.2.0/../../../../powerpc64-ps3-elf/lib/libc.a(lib_a-gdtoa-gethex.o)
 .debug_abbrev  0x0000000000006c20      0x2b8 /usr/local/ps3dev/ppu/lib/gcc/powerpc64-ps3-elf/7.2.0/../../../../powerpc64-ps3-elf/lib/libc.a(lib_a-gdtoa-hexnan.o)
 .debug_abbrev  0x0000000000006ed8      0x218 /usr/local/ps3dev/ppu/lib/gcc/powerpc64-ps3-elf/7.2.0/../../../../powerpc64-ps3-elf/lib/libc.a(lib_a-lock_internal.o)
 .debug_abbrev  0x00000000000070f0      0x1ee /usr/local/ps3dev/ppu/lib/gcc/powerpc64-ps3-elf/7.2.0/../../../../powerpc64-ps3-elf/lib/libc.a(lib_a-memchr.o)
 .debug_abbrev  0x00000000000072de      0x1df /usr/local/ps3dev/ppu/lib/gcc/powerpc64-ps3-elf/7.2.0/../../../../powerpc64-ps3-elf/lib/libc.a(lib_a-memcpy.o)
 .debug_abbrev  0x00000000000074bd      0x3a3 /usr/local/ps3dev/ppu/lib/gcc/powerpc64-ps3-elf/7.2.0/../../../../powerpc64-ps3-elf/lib/libc.a(lib_a-mprec.o)
 .debug_abbrev  0x0000000000007860      0x256 /usr/local/ps3dev/ppu/lib/gcc/powerpc64-ps3-elf/7.2.0/../../../../powerpc64-ps3-elf/lib/libc.a(lib_a-reallocr.o)
 .debug_abbrev  0x0000000000007ab6      0x1bc /usr/local/ps3dev/ppu/lib/gcc/powerpc64-ps3-elf/7.2.0/../../../../powerpc64-ps3-elf/lib/libc.a(lib_a-strncmp.o)
 .debug_abbrev  0x0000000000007c72      0x329 /usr/local/ps3dev/ppu/lib/gcc/powerpc64-ps3-elf/7.2.0/../../../../powerpc64-ps3-elf/lib/libc.a(lib_a-svfiprintf.o)
 .debug_abbrev  0x0000000000007f9b      0x1e5 /usr/local/ps3dev/ppu/lib/gcc/powerpc64-ps3-elf/7.2.0/../../../../powerpc64-ps3-elf/lib/libc.a(lib_a-abort.o)
 .debug_abbrev  0x0000000000008180      0x2c4 /usr/local/ps3dev/ppu/lib/gcc/powerpc64-ps3-elf/7.2.0/../../../../powerpc64-ps3-elf/lib/libc.a(lib_a-fclose.o)
 .debug_abbrev  0x0000000000008444      0x1df /usr/local/ps3dev/ppu/lib/gcc/powerpc64-ps3-elf/7.2.0/../../../../powerpc64-ps3-elf/lib/libc.a(lib_a-memmove.o)
 .debug_abbrev  0x0000000000008623      0x31f /usr/local/ps3dev/ppu/lib/gcc/powerpc64-ps3-elf/7.2.0/../../../../powerpc64-ps3-elf/lib/libc.a(lib_a-signal.o)
 .debug_abbrev  0x0000000000008942      0x212 /usr/local/ps3dev/ppu/lib/gcc/powerpc64-ps3-elf/7.2.0/../../../../powerpc64-ps3-elf/lib/libsysbase.a(close.o)
 .debug_abbrev  0x0000000000008b54      0x221 /usr/local/ps3dev/ppu/lib/gcc/powerpc64-ps3-elf/7.2.0/../../../../powerpc64-ps3-elf/lib/libsysbase.a(sbrk.o)
 .debug_abbrev  0x0000000000008d75      0x1f9 /usr/local/ps3dev/ppu/lib/gcc/powerpc64-ps3-elf/7.2.0/../../../../powerpc64-ps3-elf/lib/libsysbase.a(_exit.o)
 .debug_abbrev  0x0000000000008f6e      0x212 /usr/local/ps3dev/ppu/lib/gcc/powerpc64-ps3-elf/7.2.0/../../../../powerpc64-ps3-elf/lib/libsysbase.a(lseek.o)
 .debug_abbrev  0x0000000000009180      0x212 /usr/local/ps3dev/ppu/lib/gcc/powerpc64-ps3-elf/7.2.0/../../../../powerpc64-ps3-elf/lib/libsysbase.a(read.o)
 .debug_abbrev  0x0000000000009392      0x212 /usr/local/ps3dev/ppu/lib/gcc/powerpc64-ps3-elf/7.2.0/../../../../powerpc64-ps3-elf/lib/libsysbase.a(write.o)
 .debug_abbrev  0x00000000000095a4      0x23f /usr/local/ps3dev/ppu/lib/gcc/powerpc64-ps3-elf/7.2.0/../../../../powerpc64-ps3-elf/lib/libsysbase.a(lock.o)
 .debug_abbrev  0x00000000000097e3      0x212 /usr/local/ps3dev/ppu/lib/gcc/powerpc64-ps3-elf/7.2.0/../../../../powerpc64-ps3-elf/lib/libsysbase.a(getpid.o)
 .debug_abbrev  0x00000000000099f5      0x1d0 /usr/local/ps3dev/ppu/lib/gcc/powerpc64-ps3-elf/7.2.0/../../../../powerpc64-ps3-elf/lib/libsysbase.a(kill.o)

.debug_line     0x0000000000000000     0xcf5e
 *(.debug_line)
 .debug_line    0x0000000000000000      0x223 /usr/local/ps3dev/ppu/lib/gcc/powerpc64-ps3-elf/7.2.0/../../../../powerpc64-ps3-elf/lib/libsysbase.a(syscalls.o)
 .debug_line    0x0000000000000223      0x28f /usr/local/ps3dev/ppu/lib/gcc/powerpc64-ps3-elf/7.2.0/../../../../powerpc64-ps3-elf/lib/libsysbase.a(sleep.o)
 .debug_line    0x00000000000004b2      0x1ff /usr/local/ps3dev/ppu/lib/gcc/powerpc64-ps3-elf/7.2.0/../../../../powerpc64-ps3-elf/lib/libc.a(lib_a-calloc.o)
 .debug_line    0x00000000000006b1      0x241 /usr/local/ps3dev/ppu/lib/gcc/powerpc64-ps3-elf/7.2.0/../../../../powerpc64-ps3-elf/lib/libc.a(lib_a-callocr.o)
 .debug_line    0x00000000000008f2      0x1fc /usr/local/ps3dev/ppu/lib/gcc/powerpc64-ps3-elf/7.2.0/../../../../powerpc64-ps3-elf/lib/libc.a(lib_a-errno.o)
 .debug_line    0x0000000000000aee      0x219 /usr/local/ps3dev/ppu/lib/gcc/powerpc64-ps3-elf/7.2.0/../../../../powerpc64-ps3-elf/lib/libc.a(lib_a-exit.o)
 .debug_line    0x0000000000000d07      0x1b4 /usr/local/ps3dev/ppu/lib/gcc/powerpc64-ps3-elf/7.2.0/../../../../powerpc64-ps3-elf/lib/libc.a(lib_a-getreent.o)
 .debug_line    0x0000000000000ebb      0x1dd /usr/local/ps3dev/ppu/lib/gcc/powerpc64-ps3-elf/7.2.0/../../../../powerpc64-ps3-elf/lib/libc.a(lib_a-impure.o)
 .debug_line    0x0000000000001098      0x20b /usr/local/ps3dev/ppu/lib/gcc/powerpc64-ps3-elf/7.2.0/../../../../powerpc64-ps3-elf/lib/libc.a(lib_a-malign.o)
 .debug_line    0x00000000000012a3      0x293 /usr/local/ps3dev/ppu/lib/gcc/powerpc64-ps3-elf/7.2.0/../../../../powerpc64-ps3-elf/lib/libc.a(lib_a-malignr.o)
 .debug_line    0x0000000000001536      0x222 /usr/local/ps3dev/ppu/lib/gcc/powerpc64-ps3-elf/7.2.0/../../../../powerpc64-ps3-elf/lib/libc.a(lib_a-malloc.o)
 .debug_line    0x0000000000001758      0x488 /usr/local/ps3dev/ppu/lib/gcc/powerpc64-ps3-elf/7.2.0/../../../../powerpc64-ps3-elf/lib/libc.a(lib_a-mallocr.o)
 .debug_line    0x0000000000001be0      0x234 /usr/local/ps3dev/ppu/lib/gcc/powerpc64-ps3-elf/7.2.0/../../../../powerpc64-ps3-elf/lib/libc.a(lib_a-memset.o)
 .debug_line    0x0000000000001e14      0x20b /usr/local/ps3dev/ppu/lib/gcc/powerpc64-ps3-elf/7.2.0/../../../../powerpc64-ps3-elf/lib/libc.a(lib_a-mlock.o)
 .debug_line    0x000000000000201f      0x283 /usr/local/ps3dev/ppu/lib/gcc/powerpc64-ps3-elf/7.2.0/../../../../powerpc64-ps3-elf/lib/libc.a(lib_a-sscanf.o)
 .debug_line    0x00000000000022a2      0x2bb /usr/local/ps3dev/ppu/lib/gcc/powerpc64-ps3-elf/7.2.0/../../../../powerpc64-ps3-elf/lib/libc.a(lib_a-stdio.o)
 .debug_line    0x000000000000255d      0x24e /usr/local/ps3dev/ppu/lib/gcc/powerpc64-ps3-elf/7.2.0/../../../../powerpc64-ps3-elf/lib/libc.a(lib_a-strcasecmp.o)
 .debug_line    0x00000000000027ab      0x20e /usr/local/ps3dev/ppu/lib/gcc/powerpc64-ps3-elf/7.2.0/../../../../powerpc64-ps3-elf/lib/libc.a(lib_a-strlen.o)
 .debug_line    0x00000000000029b9      0x232 /usr/local/ps3dev/ppu/lib/gcc/powerpc64-ps3-elf/7.2.0/../../../../powerpc64-ps3-elf/lib/libc.a(lib_a-strncpy.o)
 .debug_line    0x0000000000002beb      0x70c /usr/local/ps3dev/ppu/lib/gcc/powerpc64-ps3-elf/7.2.0/../../../../powerpc64-ps3-elf/lib/libc.a(lib_a-svfscanf.o)
 .debug_line    0x00000000000032f7      0x271 /usr/local/ps3dev/ppu/lib/gcc/powerpc64-ps3-elf/7.2.0/../../../../powerpc64-ps3-elf/lib/libc.a(lib_a-__call_atexit.o)
 .debug_line    0x0000000000003568       0x5c /usr/local/ps3dev/ppu/lib/gcc/powerpc64-ps3-elf/7.2.0/../../../../powerpc64-ps3-elf/lib/libc.a(lib_a-ctype_.o)
 .debug_line    0x00000000000035c4      0x339 /usr/local/ps3dev/ppu/lib/gcc/powerpc64-ps3-elf/7.2.0/../../../../powerpc64-ps3-elf/lib/libc.a(lib_a-freer.o)
 .debug_line    0x00000000000038fd      0x216 /usr/local/ps3dev/ppu/lib/gcc/powerpc64-ps3-elf/7.2.0/../../../../powerpc64-ps3-elf/lib/libc.a(lib_a-iswspace.o)
 .debug_line    0x0000000000003b13      0x312 /usr/local/ps3dev/ppu/lib/gcc/powerpc64-ps3-elf/7.2.0/../../../../powerpc64-ps3-elf/lib/libc.a(lib_a-locale.o)
 .debug_line    0x0000000000003e25      0x22a /usr/local/ps3dev/ppu/lib/gcc/powerpc64-ps3-elf/7.2.0/../../../../powerpc64-ps3-elf/lib/libc.a(lib_a-lock_recursive.o)
 .debug_line    0x000000000000404f      0x276 /usr/local/ps3dev/ppu/lib/gcc/powerpc64-ps3-elf/7.2.0/../../../../powerpc64-ps3-elf/lib/libc.a(lib_a-mbrtowc.o)
 .debug_line    0x00000000000042c5      0x24e /usr/local/ps3dev/ppu/lib/gcc/powerpc64-ps3-elf/7.2.0/../../../../powerpc64-ps3-elf/lib/libc.a(lib_a-mbtowc_r.o)
 .debug_line    0x0000000000004513      0x297 /usr/local/ps3dev/ppu/lib/gcc/powerpc64-ps3-elf/7.2.0/../../../../powerpc64-ps3-elf/lib/libc.a(lib_a-s_fpclassify.o)
 .debug_line    0x00000000000047aa      0x25e /usr/local/ps3dev/ppu/lib/gcc/powerpc64-ps3-elf/7.2.0/../../../../powerpc64-ps3-elf/lib/libc.a(lib_a-sccl.o)
 .debug_line    0x0000000000004a08      0x257 /usr/local/ps3dev/ppu/lib/gcc/powerpc64-ps3-elf/7.2.0/../../../../powerpc64-ps3-elf/lib/libc.a(lib_a-sf_nan.o)
 .debug_line    0x0000000000004c5f      0x282 /usr/local/ps3dev/ppu/lib/gcc/powerpc64-ps3-elf/7.2.0/../../../../powerpc64-ps3-elf/lib/libc.a(lib_a-sprintf.o)
 .debug_line    0x0000000000004ee1      0x21d /usr/local/ps3dev/ppu/lib/gcc/powerpc64-ps3-elf/7.2.0/../../../../powerpc64-ps3-elf/lib/libc.a(lib_a-strcmp.o)
 .debug_line    0x00000000000050fe      0x6b6 /usr/local/ps3dev/ppu/lib/gcc/powerpc64-ps3-elf/7.2.0/../../../../powerpc64-ps3-elf/lib/libc.a(lib_a-strtod.o)
 .debug_line    0x00000000000057b4      0x2f7 /usr/local/ps3dev/ppu/lib/gcc/powerpc64-ps3-elf/7.2.0/../../../../powerpc64-ps3-elf/lib/libc.a(lib_a-strtol.o)
 .debug_line    0x0000000000005aab      0x2e0 /usr/local/ps3dev/ppu/lib/gcc/powerpc64-ps3-elf/7.2.0/../../../../powerpc64-ps3-elf/lib/libc.a(lib_a-strtoll_r.o)
 .debug_line    0x0000000000005d8b      0x2c6 /usr/local/ps3dev/ppu/lib/gcc/powerpc64-ps3-elf/7.2.0/../../../../powerpc64-ps3-elf/lib/libc.a(lib_a-strtoul.o)
 .debug_line    0x0000000000006051      0x2b0 /usr/local/ps3dev/ppu/lib/gcc/powerpc64-ps3-elf/7.2.0/../../../../powerpc64-ps3-elf/lib/libc.a(lib_a-strtoull_r.o)
 .debug_line    0x0000000000006301      0x69d /usr/local/ps3dev/ppu/lib/gcc/powerpc64-ps3-elf/7.2.0/../../../../powerpc64-ps3-elf/lib/libc.a(lib_a-svfiscanf.o)
 .debug_line    0x000000000000699e      0x9e4 /usr/local/ps3dev/ppu/lib/gcc/powerpc64-ps3-elf/7.2.0/../../../../powerpc64-ps3-elf/lib/libc.a(lib_a-svfprintf.o)
 .debug_line    0x0000000000007382      0x324 /usr/local/ps3dev/ppu/lib/gcc/powerpc64-ps3-elf/7.2.0/../../../../powerpc64-ps3-elf/lib/libc.a(lib_a-ungetc.o)
 .debug_line    0x00000000000076a6      0x242 /usr/local/ps3dev/ppu/lib/gcc/powerpc64-ps3-elf/7.2.0/../../../../powerpc64-ps3-elf/lib/libc.a(lib_a-__atexit.o)
 .debug_line    0x00000000000078e8      0x7e2 /usr/local/ps3dev/ppu/lib/gcc/powerpc64-ps3-elf/7.2.0/../../../../powerpc64-ps3-elf/lib/libc.a(lib_a-dtoa.o)
 .debug_line    0x00000000000080ca      0x38a /usr/local/ps3dev/ppu/lib/gcc/powerpc64-ps3-elf/7.2.0/../../../../powerpc64-ps3-elf/lib/libc.a(lib_a-fflush.o)
 .debug_line    0x0000000000008454      0x48f /usr/local/ps3dev/ppu/lib/gcc/powerpc64-ps3-elf/7.2.0/../../../../powerpc64-ps3-elf/lib/libc.a(lib_a-findfp.o)
 .debug_line    0x00000000000088e3      0x289 /usr/local/ps3dev/ppu/lib/gcc/powerpc64-ps3-elf/7.2.0/../../../../powerpc64-ps3-elf/lib/libc.a(lib_a-fwalk.o)
 .debug_line    0x0000000000008b6c      0x46f /usr/local/ps3dev/ppu/lib/gcc/powerpc64-ps3-elf/7.2.0/../../../../powerpc64-ps3-elf/lib/libc.a(lib_a-gdtoa-gethex.o)
 .debug_line    0x0000000000008fdb      0x2d5 /usr/local/ps3dev/ppu/lib/gcc/powerpc64-ps3-elf/7.2.0/../../../../powerpc64-ps3-elf/lib/libc.a(lib_a-gdtoa-hexnan.o)
 .debug_line    0x00000000000092b0      0x1ed /usr/local/ps3dev/ppu/lib/gcc/powerpc64-ps3-elf/7.2.0/../../../../powerpc64-ps3-elf/lib/libc.a(lib_a-lock_internal.o)
 .debug_line    0x000000000000949d      0x23a /usr/local/ps3dev/ppu/lib/gcc/powerpc64-ps3-elf/7.2.0/../../../../powerpc64-ps3-elf/lib/libc.a(lib_a-memchr.o)
 .debug_line    0x00000000000096d7      0x227 /usr/local/ps3dev/ppu/lib/gcc/powerpc64-ps3-elf/7.2.0/../../../../powerpc64-ps3-elf/lib/libc.a(lib_a-memcpy.o)
 .debug_line    0x00000000000098fe      0x921 /usr/local/ps3dev/ppu/lib/gcc/powerpc64-ps3-elf/7.2.0/../../../../powerpc64-ps3-elf/lib/libc.a(lib_a-mprec.o)
 .debug_line    0x000000000000a21f      0x3b5 /usr/local/ps3dev/ppu/lib/gcc/powerpc64-ps3-elf/7.2.0/../../../../powerpc64-ps3-elf/lib/libc.a(lib_a-reallocr.o)
 .debug_line    0x000000000000a5d4      0x249 /usr/local/ps3dev/ppu/lib/gcc/powerpc64-ps3-elf/7.2.0/../../../../powerpc64-ps3-elf/lib/libc.a(lib_a-strncmp.o)
 .debug_line    0x000000000000a81d      0x6bd /usr/local/ps3dev/ppu/lib/gcc/powerpc64-ps3-elf/7.2.0/../../../../powerpc64-ps3-elf/lib/libc.a(lib_a-svfiprintf.o)
 .debug_line    0x000000000000aeda      0x21a /usr/local/ps3dev/ppu/lib/gcc/powerpc64-ps3-elf/7.2.0/../../../../powerpc64-ps3-elf/lib/libc.a(lib_a-abort.o)
 .debug_line    0x000000000000b0f4      0x28b /usr/local/ps3dev/ppu/lib/gcc/powerpc64-ps3-elf/7.2.0/../../../../powerpc64-ps3-elf/lib/libc.a(lib_a-fclose.o)
 .debug_line    0x000000000000b37f      0x232 /usr/local/ps3dev/ppu/lib/gcc/powerpc64-ps3-elf/7.2.0/../../../../powerpc64-ps3-elf/lib/libc.a(lib_a-memmove.o)
 .debug_line    0x000000000000b5b1      0x393 /usr/local/ps3dev/ppu/lib/gcc/powerpc64-ps3-elf/7.2.0/../../../../powerpc64-ps3-elf/lib/libc.a(lib_a-signal.o)
 .debug_line    0x000000000000b944      0x278 /usr/local/ps3dev/ppu/lib/gcc/powerpc64-ps3-elf/7.2.0/../../../../powerpc64-ps3-elf/lib/libsysbase.a(close.o)
 .debug_line    0x000000000000bbbc      0x277 /usr/local/ps3dev/ppu/lib/gcc/powerpc64-ps3-elf/7.2.0/../../../../powerpc64-ps3-elf/lib/libsysbase.a(sbrk.o)
 .debug_line    0x000000000000be33      0x266 /usr/local/ps3dev/ppu/lib/gcc/powerpc64-ps3-elf/7.2.0/../../../../powerpc64-ps3-elf/lib/libsysbase.a(_exit.o)
 .debug_line    0x000000000000c099      0x27c /usr/local/ps3dev/ppu/lib/gcc/powerpc64-ps3-elf/7.2.0/../../../../powerpc64-ps3-elf/lib/libsysbase.a(lseek.o)
 .debug_line    0x000000000000c315      0x27b /usr/local/ps3dev/ppu/lib/gcc/powerpc64-ps3-elf/7.2.0/../../../../powerpc64-ps3-elf/lib/libsysbase.a(read.o)
 .debug_line    0x000000000000c590      0x27c /usr/local/ps3dev/ppu/lib/gcc/powerpc64-ps3-elf/7.2.0/../../../../powerpc64-ps3-elf/lib/libsysbase.a(write.o)
 .debug_line    0x000000000000c80c      0x2df /usr/local/ps3dev/ppu/lib/gcc/powerpc64-ps3-elf/7.2.0/../../../../powerpc64-ps3-elf/lib/libsysbase.a(lock.o)
 .debug_line    0x000000000000caeb      0x279 /usr/local/ps3dev/ppu/lib/gcc/powerpc64-ps3-elf/7.2.0/../../../../powerpc64-ps3-elf/lib/libsysbase.a(getpid.o)
 .debug_line    0x000000000000cd64      0x1fa /usr/local/ps3dev/ppu/lib/gcc/powerpc64-ps3-elf/7.2.0/../../../../powerpc64-ps3-elf/lib/libsysbase.a(kill.o)

.debug_frame    0x0000000000000000     0x2a88
 *(.debug_frame)
 .debug_frame   0x0000000000000000       0x70 /usr/local/ps3dev/ppu/lib/gcc/powerpc64-ps3-elf/7.2.0/../../../../powerpc64-ps3-elf/lib/libsysbase.a(sleep.o)
 .debug_frame   0x0000000000000070       0x40 /usr/local/ps3dev/ppu/lib/gcc/powerpc64-ps3-elf/7.2.0/../../../../powerpc64-ps3-elf/lib/libc.a(lib_a-calloc.o)
 .debug_frame   0x00000000000000b0       0x48 /usr/local/ps3dev/ppu/lib/gcc/powerpc64-ps3-elf/7.2.0/../../../../powerpc64-ps3-elf/lib/libc.a(lib_a-callocr.o)
 .debug_frame   0x00000000000000f8       0x38 /usr/local/ps3dev/ppu/lib/gcc/powerpc64-ps3-elf/7.2.0/../../../../powerpc64-ps3-elf/lib/libc.a(lib_a-errno.o)
 .debug_frame   0x0000000000000130       0x38 /usr/local/ps3dev/ppu/lib/gcc/powerpc64-ps3-elf/7.2.0/../../../../powerpc64-ps3-elf/lib/libc.a(lib_a-exit.o)
 .debug_frame   0x0000000000000168       0x58 /usr/local/ps3dev/ppu/lib/gcc/powerpc64-ps3-elf/7.2.0/../../../../powerpc64-ps3-elf/lib/libc.a(lib_a-getreent.o)
 .debug_frame   0x00000000000001c0       0x40 /usr/local/ps3dev/ppu/lib/gcc/powerpc64-ps3-elf/7.2.0/../../../../powerpc64-ps3-elf/lib/libc.a(lib_a-malign.o)
 .debug_frame   0x0000000000000200       0xa0 /usr/local/ps3dev/ppu/lib/gcc/powerpc64-ps3-elf/7.2.0/../../../../powerpc64-ps3-elf/lib/libc.a(lib_a-malignr.o)
 .debug_frame   0x00000000000002a0       0x70 /usr/local/ps3dev/ppu/lib/gcc/powerpc64-ps3-elf/7.2.0/../../../../powerpc64-ps3-elf/lib/libc.a(lib_a-malloc.o)
 .debug_frame   0x0000000000000310      0x118 /usr/local/ps3dev/ppu/lib/gcc/powerpc64-ps3-elf/7.2.0/../../../../powerpc64-ps3-elf/lib/libc.a(lib_a-mallocr.o)
 .debug_frame   0x0000000000000428       0x28 /usr/local/ps3dev/ppu/lib/gcc/powerpc64-ps3-elf/7.2.0/../../../../powerpc64-ps3-elf/lib/libc.a(lib_a-memset.o)
 .debug_frame   0x0000000000000450       0x60 /usr/local/ps3dev/ppu/lib/gcc/powerpc64-ps3-elf/7.2.0/../../../../powerpc64-ps3-elf/lib/libc.a(lib_a-mlock.o)
 .debug_frame   0x00000000000004b0       0x70 /usr/local/ps3dev/ppu/lib/gcc/powerpc64-ps3-elf/7.2.0/../../../../powerpc64-ps3-elf/lib/libc.a(lib_a-sscanf.o)
 .debug_frame   0x0000000000000520       0xf8 /usr/local/ps3dev/ppu/lib/gcc/powerpc64-ps3-elf/7.2.0/../../../../powerpc64-ps3-elf/lib/libc.a(lib_a-stdio.o)
 .debug_frame   0x0000000000000618       0x28 /usr/local/ps3dev/ppu/lib/gcc/powerpc64-ps3-elf/7.2.0/../../../../powerpc64-ps3-elf/lib/libc.a(lib_a-strcasecmp.o)
 .debug_frame   0x0000000000000640       0x28 /usr/local/ps3dev/ppu/lib/gcc/powerpc64-ps3-elf/7.2.0/../../../../powerpc64-ps3-elf/lib/libc.a(lib_a-strlen.o)
 .debug_frame   0x0000000000000668       0x28 /usr/local/ps3dev/ppu/lib/gcc/powerpc64-ps3-elf/7.2.0/../../../../powerpc64-ps3-elf/lib/libc.a(lib_a-strncpy.o)
 .debug_frame   0x0000000000000690      0x158 /usr/local/ps3dev/ppu/lib/gcc/powerpc64-ps3-elf/7.2.0/../../../../powerpc64-ps3-elf/lib/libc.a(lib_a-svfscanf.o)
 .debug_frame   0x00000000000007e8       0x70 /usr/local/ps3dev/ppu/lib/gcc/powerpc64-ps3-elf/7.2.0/../../../../powerpc64-ps3-elf/lib/libc.a(lib_a-__call_atexit.o)
 .debug_frame   0x0000000000000858       0xa0 /usr/local/ps3dev/ppu/lib/gcc/powerpc64-ps3-elf/7.2.0/../../../../powerpc64-ps3-elf/lib/libc.a(lib_a-freer.o)
 .debug_frame   0x00000000000008f8       0x28 /usr/local/ps3dev/ppu/lib/gcc/powerpc64-ps3-elf/7.2.0/../../../../powerpc64-ps3-elf/lib/libc.a(lib_a-iswspace.o)
 .debug_frame   0x0000000000000920      0x128 /usr/local/ps3dev/ppu/lib/gcc/powerpc64-ps3-elf/7.2.0/../../../../powerpc64-ps3-elf/lib/libc.a(lib_a-locale.o)
 .debug_frame   0x0000000000000a48       0xf0 /usr/local/ps3dev/ppu/lib/gcc/powerpc64-ps3-elf/7.2.0/../../../../powerpc64-ps3-elf/lib/libc.a(lib_a-lock_recursive.o)
 .debug_frame   0x0000000000000b38       0xa8 /usr/local/ps3dev/ppu/lib/gcc/powerpc64-ps3-elf/7.2.0/../../../../powerpc64-ps3-elf/lib/libc.a(lib_a-mbrtowc.o)
 .debug_frame   0x0000000000000be0       0x60 /usr/local/ps3dev/ppu/lib/gcc/powerpc64-ps3-elf/7.2.0/../../../../powerpc64-ps3-elf/lib/libc.a(lib_a-mbtowc_r.o)
 .debug_frame   0x0000000000000c40       0x28 /usr/local/ps3dev/ppu/lib/gcc/powerpc64-ps3-elf/7.2.0/../../../../powerpc64-ps3-elf/lib/libc.a(lib_a-s_fpclassify.o)
 .debug_frame   0x0000000000000c68       0x28 /usr/local/ps3dev/ppu/lib/gcc/powerpc64-ps3-elf/7.2.0/../../../../powerpc64-ps3-elf/lib/libc.a(lib_a-sccl.o)
 .debug_frame   0x0000000000000c90       0x28 /usr/local/ps3dev/ppu/lib/gcc/powerpc64-ps3-elf/7.2.0/../../../../powerpc64-ps3-elf/lib/libc.a(lib_a-sf_nan.o)
 .debug_frame   0x0000000000000cb8       0x68 /usr/local/ps3dev/ppu/lib/gcc/powerpc64-ps3-elf/7.2.0/../../../../powerpc64-ps3-elf/lib/libc.a(lib_a-sprintf.o)
 .debug_frame   0x0000000000000d20       0x28 /usr/local/ps3dev/ppu/lib/gcc/powerpc64-ps3-elf/7.2.0/../../../../powerpc64-ps3-elf/lib/libc.a(lib_a-strcmp.o)
 .debug_frame   0x0000000000000d48      0x288 /usr/local/ps3dev/ppu/lib/gcc/powerpc64-ps3-elf/7.2.0/../../../../powerpc64-ps3-elf/lib/libc.a(lib_a-strtod.o)
 .debug_frame   0x0000000000000fd0       0x78 /usr/local/ps3dev/ppu/lib/gcc/powerpc64-ps3-elf/7.2.0/../../../../powerpc64-ps3-elf/lib/libc.a(lib_a-strtol.o)
 .debug_frame   0x0000000000001048       0x40 /usr/local/ps3dev/ppu/lib/gcc/powerpc64-ps3-elf/7.2.0/../../../../powerpc64-ps3-elf/lib/libc.a(lib_a-strtoll_r.o)
 .debug_frame   0x0000000000001088       0x78 /usr/local/ps3dev/ppu/lib/gcc/powerpc64-ps3-elf/7.2.0/../../../../powerpc64-ps3-elf/lib/libc.a(lib_a-strtoul.o)
 .debug_frame   0x0000000000001100       0x40 /usr/local/ps3dev/ppu/lib/gcc/powerpc64-ps3-elf/7.2.0/../../../../powerpc64-ps3-elf/lib/libc.a(lib_a-strtoull_r.o)
 .debug_frame   0x0000000000001140      0x1b0 /usr/local/ps3dev/ppu/lib/gcc/powerpc64-ps3-elf/7.2.0/../../../../powerpc64-ps3-elf/lib/libc.a(lib_a-svfiscanf.o)
 .debug_frame   0x00000000000012f0      0x130 /usr/local/ps3dev/ppu/lib/gcc/powerpc64-ps3-elf/7.2.0/../../../../powerpc64-ps3-elf/lib/libc.a(lib_a-svfprintf.o)
 .debug_frame   0x0000000000001420      0x100 /usr/local/ps3dev/ppu/lib/gcc/powerpc64-ps3-elf/7.2.0/../../../../powerpc64-ps3-elf/lib/libc.a(lib_a-ungetc.o)
 .debug_frame   0x0000000000001520       0x58 /usr/local/ps3dev/ppu/lib/gcc/powerpc64-ps3-elf/7.2.0/../../../../powerpc64-ps3-elf/lib/libc.a(lib_a-__atexit.o)
 .debug_frame   0x0000000000001578      0x168 /usr/local/ps3dev/ppu/lib/gcc/powerpc64-ps3-elf/7.2.0/../../../../powerpc64-ps3-elf/lib/libc.a(lib_a-dtoa.o)
 .debug_frame   0x00000000000016e0      0x158 /usr/local/ps3dev/ppu/lib/gcc/powerpc64-ps3-elf/7.2.0/../../../../powerpc64-ps3-elf/lib/libc.a(lib_a-fflush.o)
 .debug_frame   0x0000000000001838      0x278 /usr/local/ps3dev/ppu/lib/gcc/powerpc64-ps3-elf/7.2.0/../../../../powerpc64-ps3-elf/lib/libc.a(lib_a-findfp.o)
 .debug_frame   0x0000000000001ab0       0xb8 /usr/local/ps3dev/ppu/lib/gcc/powerpc64-ps3-elf/7.2.0/../../../../powerpc64-ps3-elf/lib/libc.a(lib_a-fwalk.o)
 .debug_frame   0x0000000000001b68      0x110 /usr/local/ps3dev/ppu/lib/gcc/powerpc64-ps3-elf/7.2.0/../../../../powerpc64-ps3-elf/lib/libc.a(lib_a-gdtoa-gethex.o)
 .debug_frame   0x0000000000001c78       0x78 /usr/local/ps3dev/ppu/lib/gcc/powerpc64-ps3-elf/7.2.0/../../../../powerpc64-ps3-elf/lib/libc.a(lib_a-gdtoa-hexnan.o)
 .debug_frame   0x0000000000001cf0       0x70 /usr/local/ps3dev/ppu/lib/gcc/powerpc64-ps3-elf/7.2.0/../../../../powerpc64-ps3-elf/lib/libc.a(lib_a-lock_internal.o)
 .debug_frame   0x0000000000001d60       0x28 /usr/local/ps3dev/ppu/lib/gcc/powerpc64-ps3-elf/7.2.0/../../../../powerpc64-ps3-elf/lib/libc.a(lib_a-memchr.o)
 .debug_frame   0x0000000000001d88       0x28 /usr/local/ps3dev/ppu/lib/gcc/powerpc64-ps3-elf/7.2.0/../../../../powerpc64-ps3-elf/lib/libc.a(lib_a-memcpy.o)
 .debug_frame   0x0000000000001db0      0x408 /usr/local/ps3dev/ppu/lib/gcc/powerpc64-ps3-elf/7.2.0/../../../../powerpc64-ps3-elf/lib/libc.a(lib_a-mprec.o)
 .debug_frame   0x00000000000021b8       0xe0 /usr/local/ps3dev/ppu/lib/gcc/powerpc64-ps3-elf/7.2.0/../../../../powerpc64-ps3-elf/lib/libc.a(lib_a-reallocr.o)
 .debug_frame   0x0000000000002298       0x28 /usr/local/ps3dev/ppu/lib/gcc/powerpc64-ps3-elf/7.2.0/../../../../powerpc64-ps3-elf/lib/libc.a(lib_a-strncmp.o)
 .debug_frame   0x00000000000022c0      0x1c0 /usr/local/ps3dev/ppu/lib/gcc/powerpc64-ps3-elf/7.2.0/../../../../powerpc64-ps3-elf/lib/libc.a(lib_a-svfiprintf.o)
 .debug_frame   0x0000000000002480       0x30 /usr/local/ps3dev/ppu/lib/gcc/powerpc64-ps3-elf/7.2.0/../../../../powerpc64-ps3-elf/lib/libc.a(lib_a-abort.o)
 .debug_frame   0x00000000000024b0       0xa0 /usr/local/ps3dev/ppu/lib/gcc/powerpc64-ps3-elf/7.2.0/../../../../powerpc64-ps3-elf/lib/libc.a(lib_a-fclose.o)
 .debug_frame   0x0000000000002550       0x28 /usr/local/ps3dev/ppu/lib/gcc/powerpc64-ps3-elf/7.2.0/../../../../powerpc64-ps3-elf/lib/libc.a(lib_a-memmove.o)
 .debug_frame   0x0000000000002578      0x220 /usr/local/ps3dev/ppu/lib/gcc/powerpc64-ps3-elf/7.2.0/../../../../powerpc64-ps3-elf/lib/libc.a(lib_a-signal.o)
 .debug_frame   0x0000000000002798       0x40 /usr/local/ps3dev/ppu/lib/gcc/powerpc64-ps3-elf/7.2.0/../../../../powerpc64-ps3-elf/lib/libsysbase.a(close.o)
 .debug_frame   0x00000000000027d8       0x40 /usr/local/ps3dev/ppu/lib/gcc/powerpc64-ps3-elf/7.2.0/../../../../powerpc64-ps3-elf/lib/libsysbase.a(sbrk.o)
 .debug_frame   0x0000000000002818       0x38 /usr/local/ps3dev/ppu/lib/gcc/powerpc64-ps3-elf/7.2.0/../../../../powerpc64-ps3-elf/lib/libsysbase.a(_exit.o)
 .debug_frame   0x0000000000002850       0x40 /usr/local/ps3dev/ppu/lib/gcc/powerpc64-ps3-elf/7.2.0/../../../../powerpc64-ps3-elf/lib/libsysbase.a(lseek.o)
 .debug_frame   0x0000000000002890       0x40 /usr/local/ps3dev/ppu/lib/gcc/powerpc64-ps3-elf/7.2.0/../../../../powerpc64-ps3-elf/lib/libsysbase.a(read.o)
 .debug_frame   0x00000000000028d0       0x40 /usr/local/ps3dev/ppu/lib/gcc/powerpc64-ps3-elf/7.2.0/../../../../powerpc64-ps3-elf/lib/libsysbase.a(write.o)
 .debug_frame   0x0000000000002910      0x110 /usr/local/ps3dev/ppu/lib/gcc/powerpc64-ps3-elf/7.2.0/../../../../powerpc64-ps3-elf/lib/libsysbase.a(lock.o)
 .debug_frame   0x0000000000002a20       0x40 /usr/local/ps3dev/ppu/lib/gcc/powerpc64-ps3-elf/7.2.0/../../../../powerpc64-ps3-elf/lib/libsysbase.a(getpid.o)
 .debug_frame   0x0000000000002a60       0x28 /usr/local/ps3dev/ppu/lib/gcc/powerpc64-ps3-elf/7.2.0/../../../../powerpc64-ps3-elf/lib/libsysbase.a(kill.o)

.debug_str      0x0000000000000000     0x2a51
 *(.debug_str)
 .debug_str     0x0000000000000000      0x929 /usr/local/ps3dev/ppu/lib/gcc/powerpc64-ps3-elf/7.2.0/../../../../powerpc64-ps3-elf/lib/libsysbase.a(syscalls.o)
                                        0xa6c (size before relaxing)
 .debug_str     0x0000000000000929       0x51 /usr/local/ps3dev/ppu/lib/gcc/powerpc64-ps3-elf/7.2.0/../../../../powerpc64-ps3-elf/lib/libsysbase.a(sleep.o)
                                        0xa9d (size before relaxing)
 .debug_str     0x000000000000097a       0xe6 /usr/local/ps3dev/ppu/lib/gcc/powerpc64-ps3-elf/7.2.0/../../../../powerpc64-ps3-elf/lib/libc.a(lib_a-calloc.o)
                                        0x5bf (size before relaxing)
 .debug_str     0x0000000000000a60      0x14f /usr/local/ps3dev/ppu/lib/gcc/powerpc64-ps3-elf/7.2.0/../../../../powerpc64-ps3-elf/lib/libc.a(lib_a-callocr.o)
                                        0x72f (size before relaxing)
 .debug_str     0x0000000000000baf       0x7f /usr/local/ps3dev/ppu/lib/gcc/powerpc64-ps3-elf/7.2.0/../../../../powerpc64-ps3-elf/lib/libc.a(lib_a-errno.o)
                                        0x5b4 (size before relaxing)
 .debug_str     0x0000000000000c2e       0x45 /usr/local/ps3dev/ppu/lib/gcc/powerpc64-ps3-elf/7.2.0/../../../../powerpc64-ps3-elf/lib/libc.a(lib_a-exit.o)
                                        0x5ef (size before relaxing)
 .debug_str     0x0000000000000c73       0x92 /usr/local/ps3dev/ppu/lib/gcc/powerpc64-ps3-elf/7.2.0/../../../../powerpc64-ps3-elf/lib/libc.a(lib_a-getreent.o)
                                        0x5b7 (size before relaxing)
 .debug_str     0x0000000000000d05       0x84 /usr/local/ps3dev/ppu/lib/gcc/powerpc64-ps3-elf/7.2.0/../../../../powerpc64-ps3-elf/lib/libc.a(lib_a-impure.o)
                                        0x597 (size before relaxing)
 .debug_str     0x0000000000000d89       0x47 /usr/local/ps3dev/ppu/lib/gcc/powerpc64-ps3-elf/7.2.0/../../../../powerpc64-ps3-elf/lib/libc.a(lib_a-malign.o)
                                        0x5cb (size before relaxing)
 .debug_str     0x0000000000000dd0       0x5f /usr/local/ps3dev/ppu/lib/gcc/powerpc64-ps3-elf/7.2.0/../../../../powerpc64-ps3-elf/lib/libc.a(lib_a-malignr.o)
                                        0x780 (size before relaxing)
 .debug_str     0x0000000000000e2f       0x30 /usr/local/ps3dev/ppu/lib/gcc/powerpc64-ps3-elf/7.2.0/../../../../powerpc64-ps3-elf/lib/libc.a(lib_a-malloc.o)
                                        0x5d3 (size before relaxing)
 .debug_str     0x0000000000000e5f       0xae /usr/local/ps3dev/ppu/lib/gcc/powerpc64-ps3-elf/7.2.0/../../../../powerpc64-ps3-elf/lib/libc.a(lib_a-mallocr.o)
                                        0x80b (size before relaxing)
 .debug_str     0x0000000000000f0d       0x8e /usr/local/ps3dev/ppu/lib/gcc/powerpc64-ps3-elf/7.2.0/../../../../powerpc64-ps3-elf/lib/libc.a(lib_a-memset.o)
                                        0x5af (size before relaxing)
 .debug_str     0x0000000000000f9b       0x7b /usr/local/ps3dev/ppu/lib/gcc/powerpc64-ps3-elf/7.2.0/../../../../powerpc64-ps3-elf/lib/libc.a(lib_a-mlock.o)
                                        0x5fb (size before relaxing)
 .debug_str     0x0000000000001016      0x1b9 /usr/local/ps3dev/ppu/lib/gcc/powerpc64-ps3-elf/7.2.0/../../../../powerpc64-ps3-elf/lib/libc.a(lib_a-sscanf.o)
                                        0x731 (size before relaxing)
 .debug_str     0x00000000000011cf       0x80 /usr/local/ps3dev/ppu/lib/gcc/powerpc64-ps3-elf/7.2.0/../../../../powerpc64-ps3-elf/lib/libc.a(lib_a-stdio.o)
                                        0x763 (size before relaxing)
 .debug_str     0x000000000000124f       0x5a /usr/local/ps3dev/ppu/lib/gcc/powerpc64-ps3-elf/7.2.0/../../../../powerpc64-ps3-elf/lib/libc.a(lib_a-strcasecmp.o)
                                        0x5c8 (size before relaxing)
 .debug_str     0x00000000000012a9       0x2b /usr/local/ps3dev/ppu/lib/gcc/powerpc64-ps3-elf/7.2.0/../../../../powerpc64-ps3-elf/lib/libc.a(lib_a-strlen.o)
                                        0x5ae (size before relaxing)
 .debug_str     0x00000000000012d4       0x56 /usr/local/ps3dev/ppu/lib/gcc/powerpc64-ps3-elf/7.2.0/../../../../powerpc64-ps3-elf/lib/libc.a(lib_a-strncpy.o)
                                        0x5c5 (size before relaxing)
 .debug_str     0x000000000000132a      0x23b /usr/local/ps3dev/ppu/lib/gcc/powerpc64-ps3-elf/7.2.0/../../../../powerpc64-ps3-elf/lib/libc.a(lib_a-svfscanf.o)
                                        0x98f (size before relaxing)
 .debug_str     0x0000000000001565       0x4e /usr/local/ps3dev/ppu/lib/gcc/powerpc64-ps3-elf/7.2.0/../../../../powerpc64-ps3-elf/lib/libc.a(lib_a-__call_atexit.o)
                                        0x616 (size before relaxing)
 .debug_str     0x00000000000015b3       0x78 /usr/local/ps3dev/ppu/lib/gcc/powerpc64-ps3-elf/7.2.0/../../../../powerpc64-ps3-elf/lib/libc.a(lib_a-ctype_.o)
                                         0xf6 (size before relaxing)
 .debug_str     0x000000000000162b       0x34 /usr/local/ps3dev/ppu/lib/gcc/powerpc64-ps3-elf/7.2.0/../../../../powerpc64-ps3-elf/lib/libc.a(lib_a-freer.o)
                                        0x784 (size before relaxing)
 .debug_str     0x000000000000165f       0x2c /usr/local/ps3dev/ppu/lib/gcc/powerpc64-ps3-elf/7.2.0/../../../../powerpc64-ps3-elf/lib/libc.a(lib_a-iswspace.o)
                                        0x5ac (size before relaxing)
 .debug_str     0x000000000000168b      0x248 /usr/local/ps3dev/ppu/lib/gcc/powerpc64-ps3-elf/7.2.0/../../../../powerpc64-ps3-elf/lib/libc.a(lib_a-locale.o)
                                        0x878 (size before relaxing)
 .debug_str     0x00000000000018d3      0x14b /usr/local/ps3dev/ppu/lib/gcc/powerpc64-ps3-elf/7.2.0/../../../../powerpc64-ps3-elf/lib/libc.a(lib_a-lock_recursive.o)
                                        0x72f (size before relaxing)
 .debug_str     0x0000000000001a1e       0x3b /usr/local/ps3dev/ppu/lib/gcc/powerpc64-ps3-elf/7.2.0/../../../../powerpc64-ps3-elf/lib/libc.a(lib_a-mbrtowc.o)
                                        0x636 (size before relaxing)
 .debug_str     0x0000000000001a59       0xab /usr/local/ps3dev/ppu/lib/gcc/powerpc64-ps3-elf/7.2.0/../../../../powerpc64-ps3-elf/lib/libc.a(lib_a-mbtowc_r.o)
                                        0x641 (size before relaxing)
 .debug_str     0x0000000000001b04       0xad /usr/local/ps3dev/ppu/lib/gcc/powerpc64-ps3-elf/7.2.0/../../../../powerpc64-ps3-elf/lib/libc.a(lib_a-s_fpclassify.o)
                                        0x648 (size before relaxing)
 .debug_str     0x0000000000001bb1       0x38 /usr/local/ps3dev/ppu/lib/gcc/powerpc64-ps3-elf/7.2.0/../../../../powerpc64-ps3-elf/lib/libc.a(lib_a-sccl.o)
                                        0x6e7 (size before relaxing)
 .debug_str     0x0000000000001be9       0x4b /usr/local/ps3dev/ppu/lib/gcc/powerpc64-ps3-elf/7.2.0/../../../../powerpc64-ps3-elf/lib/libc.a(lib_a-sf_nan.o)
                                        0x63e (size before relaxing)
 .debug_str     0x0000000000001c34       0x43 /usr/local/ps3dev/ppu/lib/gcc/powerpc64-ps3-elf/7.2.0/../../../../powerpc64-ps3-elf/lib/libc.a(lib_a-sprintf.o)
                                        0x72c (size before relaxing)
 .debug_str     0x0000000000001c77       0x2b /usr/local/ps3dev/ppu/lib/gcc/powerpc64-ps3-elf/7.2.0/../../../../powerpc64-ps3-elf/lib/libc.a(lib_a-strcmp.o)
                                        0x594 (size before relaxing)
 .debug_str     0x0000000000001ca2      0x27a /usr/local/ps3dev/ppu/lib/gcc/powerpc64-ps3-elf/7.2.0/../../../../powerpc64-ps3-elf/lib/libc.a(lib_a-strtod.o)
                                        0x8d8 (size before relaxing)
 .debug_str     0x0000000000001f1c       0x47 /usr/local/ps3dev/ppu/lib/gcc/powerpc64-ps3-elf/7.2.0/../../../../powerpc64-ps3-elf/lib/libc.a(lib_a-strtol.o)
                                        0x604 (size before relaxing)
 .debug_str     0x0000000000001f63       0x2e /usr/local/ps3dev/ppu/lib/gcc/powerpc64-ps3-elf/7.2.0/../../../../powerpc64-ps3-elf/lib/libc.a(lib_a-strtoll_r.o)
                                        0x5f6 (size before relaxing)
 .debug_str     0x0000000000001f91       0x3f /usr/local/ps3dev/ppu/lib/gcc/powerpc64-ps3-elf/7.2.0/../../../../powerpc64-ps3-elf/lib/libc.a(lib_a-strtoul.o)
                                        0x607 (size before relaxing)
 .debug_str     0x0000000000001fd0       0x2f /usr/local/ps3dev/ppu/lib/gcc/powerpc64-ps3-elf/7.2.0/../../../../powerpc64-ps3-elf/lib/libc.a(lib_a-strtoull_r.o)
                                        0x5f8 (size before relaxing)
 .debug_str     0x0000000000001fff       0x1f /usr/local/ps3dev/ppu/lib/gcc/powerpc64-ps3-elf/7.2.0/../../../../powerpc64-ps3-elf/lib/libc.a(lib_a-svfiscanf.o)
                                        0x8e3 (size before relaxing)
 .debug_str     0x000000000000201e      0x172 /usr/local/ps3dev/ppu/lib/gcc/powerpc64-ps3-elf/7.2.0/../../../../powerpc64-ps3-elf/lib/libc.a(lib_a-svfprintf.o)
                                        0x9c5 (size before relaxing)
 .debug_str     0x0000000000002190       0x58 /usr/local/ps3dev/ppu/lib/gcc/powerpc64-ps3-elf/7.2.0/../../../../powerpc64-ps3-elf/lib/libc.a(lib_a-ungetc.o)
                                        0x773 (size before relaxing)
 .debug_str     0x00000000000021e8       0x71 /usr/local/ps3dev/ppu/lib/gcc/powerpc64-ps3-elf/7.2.0/../../../../powerpc64-ps3-elf/lib/libc.a(lib_a-__atexit.o)
                                        0x644 (size before relaxing)
 .debug_str     0x0000000000002259       0xd5 /usr/local/ps3dev/ppu/lib/gcc/powerpc64-ps3-elf/7.2.0/../../../../powerpc64-ps3-elf/lib/libc.a(lib_a-dtoa.o)
                                        0x797 (size before relaxing)
 .debug_str     0x000000000000232e       0x5a /usr/local/ps3dev/ppu/lib/gcc/powerpc64-ps3-elf/7.2.0/../../../../powerpc64-ps3-elf/lib/libc.a(lib_a-fflush.o)
                                        0x786 (size before relaxing)
 .debug_str     0x0000000000002388       0xf1 /usr/local/ps3dev/ppu/lib/gcc/powerpc64-ps3-elf/7.2.0/../../../../powerpc64-ps3-elf/lib/libc.a(lib_a-findfp.o)
                                        0x865 (size before relaxing)
 .debug_str     0x0000000000002479       0x38 /usr/local/ps3dev/ppu/lib/gcc/powerpc64-ps3-elf/7.2.0/../../../../powerpc64-ps3-elf/lib/libc.a(lib_a-fwalk.o)
                                        0x719 (size before relaxing)
 .debug_str     0x00000000000024b1       0xd5 /usr/local/ps3dev/ppu/lib/gcc/powerpc64-ps3-elf/7.2.0/../../../../powerpc64-ps3-elf/lib/libc.a(lib_a-gdtoa-gethex.o)
                                        0x871 (size before relaxing)
 .debug_str     0x0000000000002586       0x39 /usr/local/ps3dev/ppu/lib/gcc/powerpc64-ps3-elf/7.2.0/../../../../powerpc64-ps3-elf/lib/libc.a(lib_a-gdtoa-hexnan.o)
                                        0x770 (size before relaxing)
 .debug_str     0x00000000000025bf       0x53 /usr/local/ps3dev/ppu/lib/gcc/powerpc64-ps3-elf/7.2.0/../../../../powerpc64-ps3-elf/lib/libc.a(lib_a-lock_internal.o)
                                        0x691 (size before relaxing)
 .debug_str     0x0000000000002612       0x39 /usr/local/ps3dev/ppu/lib/gcc/powerpc64-ps3-elf/7.2.0/../../../../powerpc64-ps3-elf/lib/libc.a(lib_a-memchr.o)
                                        0x5b5 (size before relaxing)
 .debug_str     0x000000000000264b       0x30 /usr/local/ps3dev/ppu/lib/gcc/powerpc64-ps3-elf/7.2.0/../../../../powerpc64-ps3-elf/lib/libc.a(lib_a-memcpy.o)
                                        0x5c2 (size before relaxing)
 .debug_str     0x000000000000267b       0x52 /usr/local/ps3dev/ppu/lib/gcc/powerpc64-ps3-elf/7.2.0/../../../../powerpc64-ps3-elf/lib/libc.a(lib_a-mprec.o)
                                        0x740 (size before relaxing)
 .debug_str     0x00000000000026cd       0x51 /usr/local/ps3dev/ppu/lib/gcc/powerpc64-ps3-elf/7.2.0/../../../../powerpc64-ps3-elf/lib/libc.a(lib_a-reallocr.o)
                                        0x7c2 (size before relaxing)
 .debug_str     0x000000000000271e       0x2c /usr/local/ps3dev/ppu/lib/gcc/powerpc64-ps3-elf/7.2.0/../../../../powerpc64-ps3-elf/lib/libc.a(lib_a-strncmp.o)
                                        0x59d (size before relaxing)
 .debug_str     0x000000000000274a       0x15 /usr/local/ps3dev/ppu/lib/gcc/powerpc64-ps3-elf/7.2.0/../../../../powerpc64-ps3-elf/lib/libc.a(lib_a-svfiprintf.o)
                                        0x92a (size before relaxing)
 .debug_str     0x000000000000275f       0x30 /usr/local/ps3dev/ppu/lib/gcc/powerpc64-ps3-elf/7.2.0/../../../../powerpc64-ps3-elf/lib/libc.a(lib_a-abort.o)
                                        0x5e1 (size before relaxing)
 .debug_str     0x000000000000278f       0x3b /usr/local/ps3dev/ppu/lib/gcc/powerpc64-ps3-elf/7.2.0/../../../../powerpc64-ps3-elf/lib/libc.a(lib_a-fclose.o)
                                        0x790 (size before relaxing)
 .debug_str     0x00000000000027ca       0x35 /usr/local/ps3dev/ppu/lib/gcc/powerpc64-ps3-elf/7.2.0/../../../../powerpc64-ps3-elf/lib/libc.a(lib_a-memmove.o)
                                        0x5da (size before relaxing)
 .debug_str     0x00000000000027ff       0xe0 /usr/local/ps3dev/ppu/lib/gcc/powerpc64-ps3-elf/7.2.0/../../../../powerpc64-ps3-elf/lib/libc.a(lib_a-signal.o)
                                        0x651 (size before relaxing)
 .debug_str     0x00000000000028df       0x28 /usr/local/ps3dev/ppu/lib/gcc/powerpc64-ps3-elf/7.2.0/../../../../powerpc64-ps3-elf/lib/libsysbase.a(close.o)
                                        0xa89 (size before relaxing)
 .debug_str     0x0000000000002907       0x2c /usr/local/ps3dev/ppu/lib/gcc/powerpc64-ps3-elf/7.2.0/../../../../powerpc64-ps3-elf/lib/libsysbase.a(sbrk.o)
                                        0xa8c (size before relaxing)
 .debug_str     0x0000000000002933       0x28 /usr/local/ps3dev/ppu/lib/gcc/powerpc64-ps3-elf/7.2.0/../../../../powerpc64-ps3-elf/lib/libsysbase.a(_exit.o)
                                        0xa6f (size before relaxing)
 .debug_str     0x000000000000295b       0x28 /usr/local/ps3dev/ppu/lib/gcc/powerpc64-ps3-elf/7.2.0/../../../../powerpc64-ps3-elf/lib/libsysbase.a(lseek.o)
                                        0xa89 (size before relaxing)
 .debug_str     0x0000000000002983       0x27 /usr/local/ps3dev/ppu/lib/gcc/powerpc64-ps3-elf/7.2.0/../../../../powerpc64-ps3-elf/lib/libsysbase.a(read.o)
                                        0xa87 (size before relaxing)
 .debug_str     0x00000000000029aa       0x28 /usr/local/ps3dev/ppu/lib/gcc/powerpc64-ps3-elf/7.2.0/../../../../powerpc64-ps3-elf/lib/libsysbase.a(write.o)
                                        0xa89 (size before relaxing)
 .debug_str     0x00000000000029d2       0x2f /usr/local/ps3dev/ppu/lib/gcc/powerpc64-ps3-elf/7.2.0/../../../../powerpc64-ps3-elf/lib/libsysbase.a(lock.o)
                                        0xafe (size before relaxing)
 .debug_str     0x0000000000002a01       0x29 /usr/local/ps3dev/ppu/lib/gcc/powerpc64-ps3-elf/7.2.0/../../../../powerpc64-ps3-elf/lib/libsysbase.a(getpid.o)
                                        0xa8b (size before relaxing)
 .debug_str     0x0000000000002a2a       0x27 /usr/local/ps3dev/ppu/lib/gcc/powerpc64-ps3-elf/7.2.0/../../../../powerpc64-ps3-elf/lib/libsysbase.a(kill.o)
                                        0x5a7 (size before relaxing)

.debug_loc      0x0000000000000000    0x22fee
 *(.debug_loc)
 .debug_loc     0x0000000000000000      0x12a /usr/local/ps3dev/ppu/lib/gcc/powerpc64-ps3-elf/7.2.0/../../../../powerpc64-ps3-elf/lib/libsysbase.a(sleep.o)
 .debug_loc     0x000000000000012a       0x98 /usr/local/ps3dev/ppu/lib/gcc/powerpc64-ps3-elf/7.2.0/../../../../powerpc64-ps3-elf/lib/libc.a(lib_a-calloc.o)
 .debug_loc     0x00000000000001c2      0x373 /usr/local/ps3dev/ppu/lib/gcc/powerpc64-ps3-elf/7.2.0/../../../../powerpc64-ps3-elf/lib/libc.a(lib_a-callocr.o)
 .debug_loc     0x0000000000000535       0x39 /usr/local/ps3dev/ppu/lib/gcc/powerpc64-ps3-elf/7.2.0/../../../../powerpc64-ps3-elf/lib/libc.a(lib_a-exit.o)
 .debug_loc     0x000000000000056e       0x5c /usr/local/ps3dev/ppu/lib/gcc/powerpc64-ps3-elf/7.2.0/../../../../powerpc64-ps3-elf/lib/libc.a(lib_a-getreent.o)
 .debug_loc     0x00000000000005ca       0x98 /usr/local/ps3dev/ppu/lib/gcc/powerpc64-ps3-elf/7.2.0/../../../../powerpc64-ps3-elf/lib/libc.a(lib_a-malign.o)
 .debug_loc     0x0000000000000662      0x457 /usr/local/ps3dev/ppu/lib/gcc/powerpc64-ps3-elf/7.2.0/../../../../powerpc64-ps3-elf/lib/libc.a(lib_a-malignr.o)
 .debug_loc     0x0000000000000ab9       0x98 /usr/local/ps3dev/ppu/lib/gcc/powerpc64-ps3-elf/7.2.0/../../../../powerpc64-ps3-elf/lib/libc.a(lib_a-malloc.o)
 .debug_loc     0x0000000000000b51     0x15a2 /usr/local/ps3dev/ppu/lib/gcc/powerpc64-ps3-elf/7.2.0/../../../../powerpc64-ps3-elf/lib/libc.a(lib_a-mallocr.o)
 .debug_loc     0x00000000000020f3      0x323 /usr/local/ps3dev/ppu/lib/gcc/powerpc64-ps3-elf/7.2.0/../../../../powerpc64-ps3-elf/lib/libc.a(lib_a-memset.o)
 .debug_loc     0x0000000000002416       0x72 /usr/local/ps3dev/ppu/lib/gcc/powerpc64-ps3-elf/7.2.0/../../../../powerpc64-ps3-elf/lib/libc.a(lib_a-mlock.o)
 .debug_loc     0x0000000000002488      0x1f3 /usr/local/ps3dev/ppu/lib/gcc/powerpc64-ps3-elf/7.2.0/../../../../powerpc64-ps3-elf/lib/libc.a(lib_a-sscanf.o)
 .debug_loc     0x000000000000267b      0x577 /usr/local/ps3dev/ppu/lib/gcc/powerpc64-ps3-elf/7.2.0/../../../../powerpc64-ps3-elf/lib/libc.a(lib_a-stdio.o)
 .debug_loc     0x0000000000002bf2      0x270 /usr/local/ps3dev/ppu/lib/gcc/powerpc64-ps3-elf/7.2.0/../../../../powerpc64-ps3-elf/lib/libc.a(lib_a-strcasecmp.o)
 .debug_loc     0x0000000000002e62      0x103 /usr/local/ps3dev/ppu/lib/gcc/powerpc64-ps3-elf/7.2.0/../../../../powerpc64-ps3-elf/lib/libc.a(lib_a-strlen.o)
 .debug_loc     0x0000000000002f65      0x27e /usr/local/ps3dev/ppu/lib/gcc/powerpc64-ps3-elf/7.2.0/../../../../powerpc64-ps3-elf/lib/libc.a(lib_a-strncpy.o)
 .debug_loc     0x00000000000031e3     0x2871 /usr/local/ps3dev/ppu/lib/gcc/powerpc64-ps3-elf/7.2.0/../../../../powerpc64-ps3-elf/lib/libc.a(lib_a-svfscanf.o)
 .debug_loc     0x0000000000005a54      0x343 /usr/local/ps3dev/ppu/lib/gcc/powerpc64-ps3-elf/7.2.0/../../../../powerpc64-ps3-elf/lib/libc.a(lib_a-__call_atexit.o)
 .debug_loc     0x0000000000005d97      0x8b3 /usr/local/ps3dev/ppu/lib/gcc/powerpc64-ps3-elf/7.2.0/../../../../powerpc64-ps3-elf/lib/libc.a(lib_a-freer.o)
 .debug_loc     0x000000000000664a       0x62 /usr/local/ps3dev/ppu/lib/gcc/powerpc64-ps3-elf/7.2.0/../../../../powerpc64-ps3-elf/lib/libc.a(lib_a-iswspace.o)
 .debug_loc     0x00000000000066ac      0x276 /usr/local/ps3dev/ppu/lib/gcc/powerpc64-ps3-elf/7.2.0/../../../../powerpc64-ps3-elf/lib/libc.a(lib_a-locale.o)
 .debug_loc     0x0000000000006922      0x156 /usr/local/ps3dev/ppu/lib/gcc/powerpc64-ps3-elf/7.2.0/../../../../powerpc64-ps3-elf/lib/libc.a(lib_a-lock_recursive.o)
 .debug_loc     0x0000000000006a78      0x514 /usr/local/ps3dev/ppu/lib/gcc/powerpc64-ps3-elf/7.2.0/../../../../powerpc64-ps3-elf/lib/libc.a(lib_a-mbrtowc.o)
 .debug_loc     0x0000000000006f8c      0x211 /usr/local/ps3dev/ppu/lib/gcc/powerpc64-ps3-elf/7.2.0/../../../../powerpc64-ps3-elf/lib/libc.a(lib_a-mbtowc_r.o)
 .debug_loc     0x000000000000719d       0xcb /usr/local/ps3dev/ppu/lib/gcc/powerpc64-ps3-elf/7.2.0/../../../../powerpc64-ps3-elf/lib/libc.a(lib_a-s_fpclassify.o)
 .debug_loc     0x0000000000007268      0x311 /usr/local/ps3dev/ppu/lib/gcc/powerpc64-ps3-elf/7.2.0/../../../../powerpc64-ps3-elf/lib/libc.a(lib_a-sccl.o)
 .debug_loc     0x0000000000007579      0x1fc /usr/local/ps3dev/ppu/lib/gcc/powerpc64-ps3-elf/7.2.0/../../../../powerpc64-ps3-elf/lib/libc.a(lib_a-sprintf.o)
 .debug_loc     0x0000000000007775      0x224 /usr/local/ps3dev/ppu/lib/gcc/powerpc64-ps3-elf/7.2.0/../../../../powerpc64-ps3-elf/lib/libc.a(lib_a-strcmp.o)
 .debug_loc     0x0000000000007999     0x3742 /usr/local/ps3dev/ppu/lib/gcc/powerpc64-ps3-elf/7.2.0/../../../../powerpc64-ps3-elf/lib/libc.a(lib_a-strtod.o)
 .debug_loc     0x000000000000b0db      0x693 /usr/local/ps3dev/ppu/lib/gcc/powerpc64-ps3-elf/7.2.0/../../../../powerpc64-ps3-elf/lib/libc.a(lib_a-strtol.o)
 .debug_loc     0x000000000000b76e      0x59c /usr/local/ps3dev/ppu/lib/gcc/powerpc64-ps3-elf/7.2.0/../../../../powerpc64-ps3-elf/lib/libc.a(lib_a-strtoll_r.o)
 .debug_loc     0x000000000000bd0a      0x66e /usr/local/ps3dev/ppu/lib/gcc/powerpc64-ps3-elf/7.2.0/../../../../powerpc64-ps3-elf/lib/libc.a(lib_a-strtoul.o)
 .debug_loc     0x000000000000c378      0x577 /usr/local/ps3dev/ppu/lib/gcc/powerpc64-ps3-elf/7.2.0/../../../../powerpc64-ps3-elf/lib/libc.a(lib_a-strtoull_r.o)
 .debug_loc     0x000000000000c8ef     0x1f4d /usr/local/ps3dev/ppu/lib/gcc/powerpc64-ps3-elf/7.2.0/../../../../powerpc64-ps3-elf/lib/libc.a(lib_a-svfiscanf.o)
 .debug_loc     0x000000000000e83c     0x320d /usr/local/ps3dev/ppu/lib/gcc/powerpc64-ps3-elf/7.2.0/../../../../powerpc64-ps3-elf/lib/libc.a(lib_a-svfprintf.o)
 .debug_loc     0x0000000000011a49      0x495 /usr/local/ps3dev/ppu/lib/gcc/powerpc64-ps3-elf/7.2.0/../../../../powerpc64-ps3-elf/lib/libc.a(lib_a-ungetc.o)
 .debug_loc     0x0000000000011ede      0x1fe /usr/local/ps3dev/ppu/lib/gcc/powerpc64-ps3-elf/7.2.0/../../../../powerpc64-ps3-elf/lib/libc.a(lib_a-__atexit.o)
 .debug_loc     0x00000000000120dc     0x3eda /usr/local/ps3dev/ppu/lib/gcc/powerpc64-ps3-elf/7.2.0/../../../../powerpc64-ps3-elf/lib/libc.a(lib_a-dtoa.o)
 .debug_loc     0x0000000000015fb6      0x8ac /usr/local/ps3dev/ppu/lib/gcc/powerpc64-ps3-elf/7.2.0/../../../../powerpc64-ps3-elf/lib/libc.a(lib_a-fflush.o)
 .debug_loc     0x0000000000016862      0x489 /usr/local/ps3dev/ppu/lib/gcc/powerpc64-ps3-elf/7.2.0/../../../../powerpc64-ps3-elf/lib/libc.a(lib_a-findfp.o)
 .debug_loc     0x0000000000016ceb      0x4cb /usr/local/ps3dev/ppu/lib/gcc/powerpc64-ps3-elf/7.2.0/../../../../powerpc64-ps3-elf/lib/libc.a(lib_a-fwalk.o)
 .debug_loc     0x00000000000171b6     0x1e8c /usr/local/ps3dev/ppu/lib/gcc/powerpc64-ps3-elf/7.2.0/../../../../powerpc64-ps3-elf/lib/libc.a(lib_a-gdtoa-gethex.o)
 .debug_loc     0x0000000000019042      0x98a /usr/local/ps3dev/ppu/lib/gcc/powerpc64-ps3-elf/7.2.0/../../../../powerpc64-ps3-elf/lib/libc.a(lib_a-gdtoa-hexnan.o)
 .debug_loc     0x00000000000199cc       0x5f /usr/local/ps3dev/ppu/lib/gcc/powerpc64-ps3-elf/7.2.0/../../../../powerpc64-ps3-elf/lib/libc.a(lib_a-lock_internal.o)
 .debug_loc     0x0000000000019a2b      0x24b /usr/local/ps3dev/ppu/lib/gcc/powerpc64-ps3-elf/7.2.0/../../../../powerpc64-ps3-elf/lib/libc.a(lib_a-memchr.o)
 .debug_loc     0x0000000000019c76      0x4a6 /usr/local/ps3dev/ppu/lib/gcc/powerpc64-ps3-elf/7.2.0/../../../../powerpc64-ps3-elf/lib/libc.a(lib_a-memcpy.o)
 .debug_loc     0x000000000001a11c     0x377c /usr/local/ps3dev/ppu/lib/gcc/powerpc64-ps3-elf/7.2.0/../../../../powerpc64-ps3-elf/lib/libc.a(lib_a-mprec.o)
 .debug_loc     0x000000000001d898     0x1c58 /usr/local/ps3dev/ppu/lib/gcc/powerpc64-ps3-elf/7.2.0/../../../../powerpc64-ps3-elf/lib/libc.a(lib_a-reallocr.o)
 .debug_loc     0x000000000001f4f0      0x1b6 /usr/local/ps3dev/ppu/lib/gcc/powerpc64-ps3-elf/7.2.0/../../../../powerpc64-ps3-elf/lib/libc.a(lib_a-strncmp.o)
 .debug_loc     0x000000000001f6a6     0x1bfd /usr/local/ps3dev/ppu/lib/gcc/powerpc64-ps3-elf/7.2.0/../../../../powerpc64-ps3-elf/lib/libc.a(lib_a-svfiprintf.o)
 .debug_loc     0x00000000000212a3      0x237 /usr/local/ps3dev/ppu/lib/gcc/powerpc64-ps3-elf/7.2.0/../../../../powerpc64-ps3-elf/lib/libc.a(lib_a-fclose.o)
 .debug_loc     0x00000000000214da      0x5cf /usr/local/ps3dev/ppu/lib/gcc/powerpc64-ps3-elf/7.2.0/../../../../powerpc64-ps3-elf/lib/libc.a(lib_a-memmove.o)
 .debug_loc     0x0000000000021aa9      0xb4f /usr/local/ps3dev/ppu/lib/gcc/powerpc64-ps3-elf/7.2.0/../../../../powerpc64-ps3-elf/lib/libc.a(lib_a-signal.o)
 .debug_loc     0x00000000000225f8       0xab /usr/local/ps3dev/ppu/lib/gcc/powerpc64-ps3-elf/7.2.0/../../../../powerpc64-ps3-elf/lib/libsysbase.a(close.o)
 .debug_loc     0x00000000000226a3       0xab /usr/local/ps3dev/ppu/lib/gcc/powerpc64-ps3-elf/7.2.0/../../../../powerpc64-ps3-elf/lib/libsysbase.a(sbrk.o)
 .debug_loc     0x000000000002274e       0x39 /usr/local/ps3dev/ppu/lib/gcc/powerpc64-ps3-elf/7.2.0/../../../../powerpc64-ps3-elf/lib/libsysbase.a(_exit.o)
 .debug_loc     0x0000000000022787      0x143 /usr/local/ps3dev/ppu/lib/gcc/powerpc64-ps3-elf/7.2.0/../../../../powerpc64-ps3-elf/lib/libsysbase.a(lseek.o)
 .debug_loc     0x00000000000228ca      0x143 /usr/local/ps3dev/ppu/lib/gcc/powerpc64-ps3-elf/7.2.0/../../../../powerpc64-ps3-elf/lib/libsysbase.a(read.o)
 .debug_loc     0x0000000000022a0d      0x143 /usr/local/ps3dev/ppu/lib/gcc/powerpc64-ps3-elf/7.2.0/../../../../powerpc64-ps3-elf/lib/libsysbase.a(write.o)
 .debug_loc     0x0000000000022b50      0x406 /usr/local/ps3dev/ppu/lib/gcc/powerpc64-ps3-elf/7.2.0/../../../../powerpc64-ps3-elf/lib/libsysbase.a(lock.o)
 .debug_loc     0x0000000000022f56       0x5f /usr/local/ps3dev/ppu/lib/gcc/powerpc64-ps3-elf/7.2.0/../../../../powerpc64-ps3-elf/lib/libsysbase.a(getpid.o)
 .debug_loc     0x0000000000022fb5       0x39 /usr/local/ps3dev/ppu/lib/gcc/powerpc64-ps3-elf/7.2.0/../../../../powerpc64-ps3-elf/lib/libsysbase.a(kill.o)

.debug_macinfo
 *(.debug_macinfo)

.debug_weaknames
 *(.debug_weaknames)

.debug_funcnames
 *(.debug_funcnames)

.debug_typenames
 *(.debug_typenames)

.debug_varnames
 *(.debug_varnames)

.debug_pubtypes
 *(.debug_pubtypes)

.debug_ranges   0x0000000000000000     0x2170
 *(.debug_ranges)
 .debug_ranges  0x0000000000000000       0x30 /usr/local/ps3dev/ppu/lib/gcc/powerpc64-ps3-elf/7.2.0/../../../../powerpc64-ps3-elf/lib/libsysbase.a(sleep.o)
 .debug_ranges  0x0000000000000030       0x20 /usr/local/ps3dev/ppu/lib/gcc/powerpc64-ps3-elf/7.2.0/../../../../powerpc64-ps3-elf/lib/libc.a(lib_a-calloc.o)
 .debug_ranges  0x0000000000000050       0x90 /usr/local/ps3dev/ppu/lib/gcc/powerpc64-ps3-elf/7.2.0/../../../../powerpc64-ps3-elf/lib/libc.a(lib_a-callocr.o)
 .debug_ranges  0x00000000000000e0       0x20 /usr/local/ps3dev/ppu/lib/gcc/powerpc64-ps3-elf/7.2.0/../../../../powerpc64-ps3-elf/lib/libc.a(lib_a-errno.o)
 .debug_ranges  0x0000000000000100       0x20 /usr/local/ps3dev/ppu/lib/gcc/powerpc64-ps3-elf/7.2.0/../../../../powerpc64-ps3-elf/lib/libc.a(lib_a-exit.o)
 .debug_ranges  0x0000000000000120       0x60 /usr/local/ps3dev/ppu/lib/gcc/powerpc64-ps3-elf/7.2.0/../../../../powerpc64-ps3-elf/lib/libc.a(lib_a-getreent.o)
 .debug_ranges  0x0000000000000180       0x20 /usr/local/ps3dev/ppu/lib/gcc/powerpc64-ps3-elf/7.2.0/../../../../powerpc64-ps3-elf/lib/libc.a(lib_a-malign.o)
 .debug_ranges  0x00000000000001a0       0x20 /usr/local/ps3dev/ppu/lib/gcc/powerpc64-ps3-elf/7.2.0/../../../../powerpc64-ps3-elf/lib/libc.a(lib_a-malignr.o)
 .debug_ranges  0x00000000000001c0       0x30 /usr/local/ps3dev/ppu/lib/gcc/powerpc64-ps3-elf/7.2.0/../../../../powerpc64-ps3-elf/lib/libc.a(lib_a-malloc.o)
 .debug_ranges  0x00000000000001f0       0xa0 /usr/local/ps3dev/ppu/lib/gcc/powerpc64-ps3-elf/7.2.0/../../../../powerpc64-ps3-elf/lib/libc.a(lib_a-mallocr.o)
 .debug_ranges  0x0000000000000290       0x20 /usr/local/ps3dev/ppu/lib/gcc/powerpc64-ps3-elf/7.2.0/../../../../powerpc64-ps3-elf/lib/libc.a(lib_a-memset.o)
 .debug_ranges  0x00000000000002b0       0x30 /usr/local/ps3dev/ppu/lib/gcc/powerpc64-ps3-elf/7.2.0/../../../../powerpc64-ps3-elf/lib/libc.a(lib_a-mlock.o)
 .debug_ranges  0x00000000000002e0       0x30 /usr/local/ps3dev/ppu/lib/gcc/powerpc64-ps3-elf/7.2.0/../../../../powerpc64-ps3-elf/lib/libc.a(lib_a-sscanf.o)
 .debug_ranges  0x0000000000000310       0x60 /usr/local/ps3dev/ppu/lib/gcc/powerpc64-ps3-elf/7.2.0/../../../../powerpc64-ps3-elf/lib/libc.a(lib_a-stdio.o)
 .debug_ranges  0x0000000000000370       0x80 /usr/local/ps3dev/ppu/lib/gcc/powerpc64-ps3-elf/7.2.0/../../../../powerpc64-ps3-elf/lib/libc.a(lib_a-strcasecmp.o)
 .debug_ranges  0x00000000000003f0       0x20 /usr/local/ps3dev/ppu/lib/gcc/powerpc64-ps3-elf/7.2.0/../../../../powerpc64-ps3-elf/lib/libc.a(lib_a-strlen.o)
 .debug_ranges  0x0000000000000410       0x20 /usr/local/ps3dev/ppu/lib/gcc/powerpc64-ps3-elf/7.2.0/../../../../powerpc64-ps3-elf/lib/libc.a(lib_a-strncpy.o)
 .debug_ranges  0x0000000000000430      0x350 /usr/local/ps3dev/ppu/lib/gcc/powerpc64-ps3-elf/7.2.0/../../../../powerpc64-ps3-elf/lib/libc.a(lib_a-svfscanf.o)
 .debug_ranges  0x0000000000000780       0x80 /usr/local/ps3dev/ppu/lib/gcc/powerpc64-ps3-elf/7.2.0/../../../../powerpc64-ps3-elf/lib/libc.a(lib_a-__call_atexit.o)
 .debug_ranges  0x0000000000000800       0x30 /usr/local/ps3dev/ppu/lib/gcc/powerpc64-ps3-elf/7.2.0/../../../../powerpc64-ps3-elf/lib/libc.a(lib_a-freer.o)
 .debug_ranges  0x0000000000000830       0x20 /usr/local/ps3dev/ppu/lib/gcc/powerpc64-ps3-elf/7.2.0/../../../../powerpc64-ps3-elf/lib/libc.a(lib_a-iswspace.o)
 .debug_ranges  0x0000000000000850       0xc0 /usr/local/ps3dev/ppu/lib/gcc/powerpc64-ps3-elf/7.2.0/../../../../powerpc64-ps3-elf/lib/libc.a(lib_a-locale.o)
 .debug_ranges  0x0000000000000910       0x60 /usr/local/ps3dev/ppu/lib/gcc/powerpc64-ps3-elf/7.2.0/../../../../powerpc64-ps3-elf/lib/libc.a(lib_a-lock_recursive.o)
 .debug_ranges  0x0000000000000970       0x30 /usr/local/ps3dev/ppu/lib/gcc/powerpc64-ps3-elf/7.2.0/../../../../powerpc64-ps3-elf/lib/libc.a(lib_a-mbrtowc.o)
 .debug_ranges  0x00000000000009a0       0x30 /usr/local/ps3dev/ppu/lib/gcc/powerpc64-ps3-elf/7.2.0/../../../../powerpc64-ps3-elf/lib/libc.a(lib_a-mbtowc_r.o)
 .debug_ranges  0x00000000000009d0       0x20 /usr/local/ps3dev/ppu/lib/gcc/powerpc64-ps3-elf/7.2.0/../../../../powerpc64-ps3-elf/lib/libc.a(lib_a-s_fpclassify.o)
 .debug_ranges  0x00000000000009f0       0x20 /usr/local/ps3dev/ppu/lib/gcc/powerpc64-ps3-elf/7.2.0/../../../../powerpc64-ps3-elf/lib/libc.a(lib_a-sccl.o)
 .debug_ranges  0x0000000000000a10       0x20 /usr/local/ps3dev/ppu/lib/gcc/powerpc64-ps3-elf/7.2.0/../../../../powerpc64-ps3-elf/lib/libc.a(lib_a-sf_nan.o)
 .debug_ranges  0x0000000000000a30       0x30 /usr/local/ps3dev/ppu/lib/gcc/powerpc64-ps3-elf/7.2.0/../../../../powerpc64-ps3-elf/lib/libc.a(lib_a-sprintf.o)
 .debug_ranges  0x0000000000000a60       0x20 /usr/local/ps3dev/ppu/lib/gcc/powerpc64-ps3-elf/7.2.0/../../../../powerpc64-ps3-elf/lib/libc.a(lib_a-strcmp.o)
 .debug_ranges  0x0000000000000a80      0x150 /usr/local/ps3dev/ppu/lib/gcc/powerpc64-ps3-elf/7.2.0/../../../../powerpc64-ps3-elf/lib/libc.a(lib_a-strtod.o)
 .debug_ranges  0x0000000000000bd0       0x30 /usr/local/ps3dev/ppu/lib/gcc/powerpc64-ps3-elf/7.2.0/../../../../powerpc64-ps3-elf/lib/libc.a(lib_a-strtol.o)
 .debug_ranges  0x0000000000000c00       0x20 /usr/local/ps3dev/ppu/lib/gcc/powerpc64-ps3-elf/7.2.0/../../../../powerpc64-ps3-elf/lib/libc.a(lib_a-strtoll_r.o)
 .debug_ranges  0x0000000000000c20       0x30 /usr/local/ps3dev/ppu/lib/gcc/powerpc64-ps3-elf/7.2.0/../../../../powerpc64-ps3-elf/lib/libc.a(lib_a-strtoul.o)
 .debug_ranges  0x0000000000000c50       0x20 /usr/local/ps3dev/ppu/lib/gcc/powerpc64-ps3-elf/7.2.0/../../../../powerpc64-ps3-elf/lib/libc.a(lib_a-strtoull_r.o)
 .debug_ranges  0x0000000000000c70      0x220 /usr/local/ps3dev/ppu/lib/gcc/powerpc64-ps3-elf/7.2.0/../../../../powerpc64-ps3-elf/lib/libc.a(lib_a-svfiscanf.o)
 .debug_ranges  0x0000000000000e90      0x330 /usr/local/ps3dev/ppu/lib/gcc/powerpc64-ps3-elf/7.2.0/../../../../powerpc64-ps3-elf/lib/libc.a(lib_a-svfprintf.o)
 .debug_ranges  0x00000000000011c0       0x90 /usr/local/ps3dev/ppu/lib/gcc/powerpc64-ps3-elf/7.2.0/../../../../powerpc64-ps3-elf/lib/libc.a(lib_a-ungetc.o)
 .debug_ranges  0x0000000000001250       0x20 /usr/local/ps3dev/ppu/lib/gcc/powerpc64-ps3-elf/7.2.0/../../../../powerpc64-ps3-elf/lib/libc.a(lib_a-__atexit.o)
 .debug_ranges  0x0000000000001270       0x30 /usr/local/ps3dev/ppu/lib/gcc/powerpc64-ps3-elf/7.2.0/../../../../powerpc64-ps3-elf/lib/libc.a(lib_a-dtoa.o)
 .debug_ranges  0x00000000000012a0      0x100 /usr/local/ps3dev/ppu/lib/gcc/powerpc64-ps3-elf/7.2.0/../../../../powerpc64-ps3-elf/lib/libc.a(lib_a-fflush.o)
 .debug_ranges  0x00000000000013a0      0x200 /usr/local/ps3dev/ppu/lib/gcc/powerpc64-ps3-elf/7.2.0/../../../../powerpc64-ps3-elf/lib/libc.a(lib_a-findfp.o)
 .debug_ranges  0x00000000000015a0       0x30 /usr/local/ps3dev/ppu/lib/gcc/powerpc64-ps3-elf/7.2.0/../../../../powerpc64-ps3-elf/lib/libc.a(lib_a-fwalk.o)
 .debug_ranges  0x00000000000015d0       0x90 /usr/local/ps3dev/ppu/lib/gcc/powerpc64-ps3-elf/7.2.0/../../../../powerpc64-ps3-elf/lib/libc.a(lib_a-gdtoa-gethex.o)
 .debug_ranges  0x0000000000001660       0x20 /usr/local/ps3dev/ppu/lib/gcc/powerpc64-ps3-elf/7.2.0/../../../../powerpc64-ps3-elf/lib/libc.a(lib_a-gdtoa-hexnan.o)
 .debug_ranges  0x0000000000001680       0x30 /usr/local/ps3dev/ppu/lib/gcc/powerpc64-ps3-elf/7.2.0/../../../../powerpc64-ps3-elf/lib/libc.a(lib_a-lock_internal.o)
 .debug_ranges  0x00000000000016b0       0x20 /usr/local/ps3dev/ppu/lib/gcc/powerpc64-ps3-elf/7.2.0/../../../../powerpc64-ps3-elf/lib/libc.a(lib_a-memchr.o)
 .debug_ranges  0x00000000000016d0       0x20 /usr/local/ps3dev/ppu/lib/gcc/powerpc64-ps3-elf/7.2.0/../../../../powerpc64-ps3-elf/lib/libc.a(lib_a-memcpy.o)
 .debug_ranges  0x00000000000016f0      0x2d0 /usr/local/ps3dev/ppu/lib/gcc/powerpc64-ps3-elf/7.2.0/../../../../powerpc64-ps3-elf/lib/libc.a(lib_a-mprec.o)
 .debug_ranges  0x00000000000019c0      0x350 /usr/local/ps3dev/ppu/lib/gcc/powerpc64-ps3-elf/7.2.0/../../../../powerpc64-ps3-elf/lib/libc.a(lib_a-reallocr.o)
 .debug_ranges  0x0000000000001d10       0x20 /usr/local/ps3dev/ppu/lib/gcc/powerpc64-ps3-elf/7.2.0/../../../../powerpc64-ps3-elf/lib/libc.a(lib_a-strncmp.o)
 .debug_ranges  0x0000000000001d30       0xc0 /usr/local/ps3dev/ppu/lib/gcc/powerpc64-ps3-elf/7.2.0/../../../../powerpc64-ps3-elf/lib/libc.a(lib_a-svfiprintf.o)
 .debug_ranges  0x0000000000001df0       0x20 /usr/local/ps3dev/ppu/lib/gcc/powerpc64-ps3-elf/7.2.0/../../../../powerpc64-ps3-elf/lib/libc.a(lib_a-abort.o)
 .debug_ranges  0x0000000000001e10       0x60 /usr/local/ps3dev/ppu/lib/gcc/powerpc64-ps3-elf/7.2.0/../../../../powerpc64-ps3-elf/lib/libc.a(lib_a-fclose.o)
 .debug_ranges  0x0000000000001e70       0x20 /usr/local/ps3dev/ppu/lib/gcc/powerpc64-ps3-elf/7.2.0/../../../../powerpc64-ps3-elf/lib/libc.a(lib_a-memmove.o)
 .debug_ranges  0x0000000000001e90      0x180 /usr/local/ps3dev/ppu/lib/gcc/powerpc64-ps3-elf/7.2.0/../../../../powerpc64-ps3-elf/lib/libc.a(lib_a-signal.o)
 .debug_ranges  0x0000000000002010       0x20 /usr/local/ps3dev/ppu/lib/gcc/powerpc64-ps3-elf/7.2.0/../../../../powerpc64-ps3-elf/lib/libsysbase.a(close.o)
 .debug_ranges  0x0000000000002030       0x20 /usr/local/ps3dev/ppu/lib/gcc/powerpc64-ps3-elf/7.2.0/../../../../powerpc64-ps3-elf/lib/libsysbase.a(sbrk.o)
 .debug_ranges  0x0000000000002050       0x20 /usr/local/ps3dev/ppu/lib/gcc/powerpc64-ps3-elf/7.2.0/../../../../powerpc64-ps3-elf/lib/libsysbase.a(_exit.o)
 .debug_ranges  0x0000000000002070       0x20 /usr/local/ps3dev/ppu/lib/gcc/powerpc64-ps3-elf/7.2.0/../../../../powerpc64-ps3-elf/lib/libsysbase.a(lseek.o)
 .debug_ranges  0x0000000000002090       0x20 /usr/local/ps3dev/ppu/lib/gcc/powerpc64-ps3-elf/7.2.0/../../../../powerpc64-ps3-elf/lib/libsysbase.a(read.o)
 .debug_ranges  0x00000000000020b0       0x20 /usr/local/ps3dev/ppu/lib/gcc/powerpc64-ps3-elf/7.2.0/../../../../powerpc64-ps3-elf/lib/libsysbase.a(write.o)
 .debug_ranges  0x00000000000020d0       0x60 /usr/local/ps3dev/ppu/lib/gcc/powerpc64-ps3-elf/7.2.0/../../../../powerpc64-ps3-elf/lib/libsysbase.a(lock.o)
 .debug_ranges  0x0000000000002130       0x20 /usr/local/ps3dev/ppu/lib/gcc/powerpc64-ps3-elf/7.2.0/../../../../powerpc64-ps3-elf/lib/libsysbase.a(getpid.o)
 .debug_ranges  0x0000000000002150       0x20 /usr/local/ps3dev/ppu/lib/gcc/powerpc64-ps3-elf/7.2.0/../../../../powerpc64-ps3-elf/lib/libsysbase.a(kill.o)

.gnu.attributes
                0x0000000000000000       0x80
 *(.gnu.attributes)
 .gnu.attributes
                0x0000000000000000       0x10 /usr/local/ps3dev/psl1ght/ppu/lib/librsx.a(commands.o)
 .gnu.attributes
                0x0000000000000010       0x10 /usr/local/ps3dev/ppu/lib/gcc/powerpc64-ps3-elf/7.2.0/../../../../powerpc64-ps3-elf/lib/libc.a(lib_a-svfscanf.o)
 .gnu.attributes
                0x0000000000000020       0x10 /usr/local/ps3dev/ppu/lib/gcc/powerpc64-ps3-elf/7.2.0/../../../../powerpc64-ps3-elf/lib/libc.a(lib_a-s_fpclassify.o)
 .gnu.attributes
                0x0000000000000030       0x10 /usr/local/ps3dev/ppu/lib/gcc/powerpc64-ps3-elf/7.2.0/../../../../powerpc64-ps3-elf/lib/libc.a(lib_a-sf_nan.o)
 .gnu.attributes
                0x0000000000000040       0x10 /usr/local/ps3dev/ppu/lib/gcc/powerpc64-ps3-elf/7.2.0/../../../../powerpc64-ps3-elf/lib/libc.a(lib_a-strtod.o)
 .gnu.attributes
                0x0000000000000050       0x10 /usr/local/ps3dev/ppu/lib/gcc/powerpc64-ps3-elf/7.2.0/../../../../powerpc64-ps3-elf/lib/libc.a(lib_a-svfprintf.o)
 .gnu.attributes
                0x0000000000000060       0x10 /usr/local/ps3dev/ppu/lib/gcc/powerpc64-ps3-elf/7.2.0/../../../../powerpc64-ps3-elf/lib/libc.a(lib_a-dtoa.o)
 .gnu.attributes
                0x0000000000000070       0x10 /usr/local/ps3dev/ppu/lib/gcc/powerpc64-ps3-elf/7.2.0/../../../../powerpc64-ps3-elf/lib/libc.a(lib_a-mprec.o)

/DISCARD/
 *(.note.GNU-stack)
 *(.gnu_debuglink)
LOAD /usr/local/ps3dev/ppu/lib/gcc/powerpc64-ps3-elf/7.2.0/../../../../powerpc64-ps3-elf/lib/lv2-crti.o
LOAD /usr/local/ps3dev/ppu/lib/gcc/powerpc64-ps3-elf/7.2.0/crtbegin.o
LOAD /usr/local/ps3dev/ppu/lib/gcc/powerpc64-ps3-elf/7.2.0/../../../../powerpc64-ps3-elf/lib/lv2-crt0.o
LOAD /usr/local/ps3dev/ppu/lib/gcc/powerpc64-ps3-elf/7.2.0/../../../../powerpc64-ps3-elf/lib/lv2-sprx.o
LOAD main.o
LOAD rsxutil.o
LOAD /usr/local/ps3dev/psl1ght/ppu/lib/libgcm_sys.a
LOAD /usr/local/ps3dev/psl1ght/ppu/lib/librsx.a
LOAD /usr/local/ps3dev/psl1ght/ppu/lib/libsysutil.a
LOAD /usr/local/ps3dev/psl1ght/ppu/lib/libio.a
LOAD /usr/local/ps3dev/portlibs/ppu/lib/libcairo.a
LOAD /usr/local/ps3dev/ppu/lib/gcc/powerpc64-ps3-elf/7.2.0/../../../../powerpc64-ps3-elf/lib/libm.a
LOAD /usr/local/ps3dev/portlibs/ppu/lib/libfreetype.a
LOAD /usr/local/ps3dev/portlibs/ppu/lib/libz.a
LOAD /usr/local/ps3dev/portlibs/ppu/lib/libpixman-1.a
LOAD /usr/local/ps3dev/psl1ght/ppu/lib/librt.a
LOAD /usr/local/ps3dev/psl1ght/ppu/lib/liblv2.a
LOAD /usr/local/ps3dev/ppu/lib/gcc/powerpc64-ps3-elf/7.2.0/libgcc.a
START GROUP
LOAD /usr/local/ps3dev/ppu/lib/gcc/powerpc64-ps3-elf/7.2.0/../../../../powerpc64-ps3-elf/lib/libsysbase.a
LOAD /usr/local/ps3dev/ppu/lib/gcc/powerpc64-ps3-elf/7.2.0/../../../../powerpc64-ps3-elf/lib/libc.a
LOAD /usr/local/ps3dev/psl1ght/ppu/lib/librt.a
LOAD /usr/local/ps3dev/psl1ght/ppu/lib/liblv2.a
END GROUP
LOAD /usr/local/ps3dev/ppu/lib/gcc/powerpc64-ps3-elf/7.2.0/libgcc.a
LOAD /usr/local/ps3dev/ppu/lib/gcc/powerpc64-ps3-elf/7.2.0/crtend.o
LOAD /usr/local/ps3dev/ppu/lib/gcc/powerpc64-ps3-elf/7.2.0/../../../../powerpc64-ps3-elf/lib/lv2-crtn.o
OUTPUT(/home/crystal/PSL1GHT/samples/graphics/videoTest/videoTest.elf elf64-powerpc)
